
/home/cjf/v1.0-eac5/rmm/build/Debug/rmm.elf:     file format elf64-littleaarch64
/home/cjf/v1.0-eac5/rmm/build/Debug/rmm.elf
architecture: aarch64, flags 0x00000150:
HAS_SYMS, DYNAMIC, D_PAGED
start address 0x0000000000000000

Program Header:
    LOAD off    0x0000000000010000 vaddr 0x0000000000000000 paddr 0x0000000000000000 align 2**16
         filesz 0x0000000000038000 memsz 0x0000000000038000 flags rwx
    LOAD off    0x0000000000050000 vaddr 0x0000000000200000 paddr 0x0000000000200000 align 2**16
         filesz 0x00000000000033b0 memsz 0x000000000213d000 flags rw-
private flags = 0x0:

Sections:
Idx Name          Size      VMA               LMA               File off  Algn
  0 .text         0002c000  0000000000000000  0000000000000000  00010000  2**11
                  CONTENTS, ALLOC, LOAD, READONLY, CODE
  1 .rodata       00004f88  000000000002c000  000000000002c000  0003c000  2**3
                  CONTENTS, ALLOC, LOAD, DATA
  2 xlat_table    00007000  0000000000031000  0000000000031000  00041000  2**12
                  CONTENTS, ALLOC, LOAD, DATA
  3 .data         00002540  0000000000200000  0000000000200000  00050000  2**6
                  CONTENTS, ALLOC, LOAD, DATA
  4 .got.plt      00000018  0000000000202540  0000000000202540  00052540  2**3
                  CONTENTS, ALLOC, LOAD, DATA
  5 .rela.dyn     00000e58  0000000000202558  0000000000202558  00052558  2**3
                  CONTENTS, ALLOC, LOAD, READONLY, DATA
  6 .bss          02078e80  00000000002033b0  00000000002033b0  000533b0  2**4
                  ALLOC
  7 .stack        000c0000  000000000227d000  000000000227d000  000533b0  2**0
                  ALLOC
  8 .debug_line   0003716a  0000000000000000  0000000000000000  000533b0  2**0
                  CONTENTS, READONLY, DEBUGGING, OCTETS
  9 .debug_info   00084f77  0000000000000000  0000000000000000  0008a51a  2**0
                  CONTENTS, READONLY, DEBUGGING, OCTETS
 10 .debug_abbrev 000104bf  0000000000000000  0000000000000000  0010f491  2**0
                  CONTENTS, READONLY, DEBUGGING, OCTETS
 11 .debug_aranges 00005170  0000000000000000  0000000000000000  0011f950  2**4
                  CONTENTS, READONLY, DEBUGGING, OCTETS
 12 .debug_str    00029301  0000000000000000  0000000000000000  00124ac0  2**0
                  CONTENTS, READONLY, DEBUGGING, OCTETS
 13 .debug_frame  0000b688  0000000000000000  0000000000000000  0014ddc8  2**3
                  CONTENTS, READONLY, DEBUGGING, OCTETS
 14 .debug_ranges 00008920  0000000000000000  0000000000000000  00159450  2**4
                  CONTENTS, READONLY, DEBUGGING, OCTETS
 15 .debug_loc    000497a2  0000000000000000  0000000000000000  00161d70  2**0
                  CONTENTS, READONLY, DEBUGGING, OCTETS
 16 .comment      00000057  0000000000000000  0000000000000000  001ab512  2**0
                  CONTENTS, READONLY
 17 .debug_macro  00004ba2  0000000000000000  0000000000000000  001ab569  2**0
                  CONTENTS, READONLY, DEBUGGING, OCTETS
SYMBOL TABLE:
0000000000000000 l    d  .text	0000000000000000 .text
000000000002c000 l    d  .rodata	0000000000000000 .rodata
0000000000031000 l    d  xlat_table	0000000000000000 xlat_table
0000000000200000 l    d  .data	0000000000000000 .data
0000000000202540 l    d  .got.plt	0000000000000000 .got.plt
0000000000202558 l    d  .rela.dyn	0000000000000000 .rela.dyn
00000000002033b0 l    d  .bss	0000000000000000 .bss
000000000227d000 l    d  .stack	0000000000000000 .stack
0000000000000000 l    d  .debug_line	0000000000000000 .debug_line
0000000000000000 l    d  .debug_info	0000000000000000 .debug_info
0000000000000000 l    d  .debug_abbrev	0000000000000000 .debug_abbrev
0000000000000000 l    d  .debug_aranges	0000000000000000 .debug_aranges
0000000000000000 l    d  .debug_str	0000000000000000 .debug_str
0000000000000000 l    d  .debug_frame	0000000000000000 .debug_frame
0000000000000000 l    d  .debug_ranges	0000000000000000 .debug_ranges
0000000000000000 l    d  .debug_loc	0000000000000000 .debug_loc
0000000000000000 l    d  .comment	0000000000000000 .comment
0000000000000000 l    d  .debug_macro	0000000000000000 .debug_macro
0000000000000000 l    df *ABS*	0000000000000000 head.S.obj
00000000000000f8 l       .text	0000000000000000 cold_boot_flag
00000000000000d0 l       .text	0000000000000000 skip_to_warmboot
00000000000000e0 l       .text	0000000000000000 smc_ret
0000000000000000 l    df *ABS*	0000000000000000 entry.S.obj
0000000000000000 l    df *ABS*	0000000000000000 helpers.S.obj
0000000000000000 l    df *ABS*	0000000000000000 ns_access.S.obj
0000000000000000 l    df *ABS*	0000000000000000 run-asm.S.obj
0000000000000000 l    df *ABS*	0000000000000000 vectors.S.obj
0000000000000fb8 l       .text	0000000000000000 el2_sync_cel
0000000000000f88 l       .text	0000000000000000 el2_sync_lel
0000000000000f94 l       .text	0000000000000000 el2_irq_lel
0000000000000fa0 l       .text	0000000000000000 el2_fiq_lel
0000000000000fac l       .text	0000000000000000 el2_serror_lel
0000000000000000 l    df *ABS*	0000000000000000 exit.c
0000000000001028 l     F .text	0000000000000024 fixup_aarch32_data_abort
000000000000104c l     F .text	0000000000000018 access_in_rec_par
0000000000001064 l     F .text	000000000000002c fsc_is_external_abort
0000000000001090 l     F .text	0000000000000010 advance_pc
00000000000010a0 l     F .text	0000000000000010 handle_exception_irq_lel
00000000000010b0 l     F .text	0000000000000028 system_abort
00000000000010d8 l     F .text	0000000000000090 get_dabt_write_value
0000000000001168 l     F .text	00000000000000d8 handle_simd_exception
0000000000001240 l     F .text	0000000000000098 handle_sync_external_abort
00000000000012d8 l     F .text	0000000000000070 ipa_is_empty
0000000000001348 l     F .text	0000000000000100 handle_data_abort
0000000000001448 l     F .text	00000000000000ac handle_exception_serror_lel
00000000000014f4 l     F .text	0000000000000064 rmm_log
0000000000001558 l     F .text	0000000000000100 handle_instruction_abort
00000000000016b4 l     F .text	0000000000000310 handle_realm_rsi
00000000000019c4 l     F .text	0000000000000118 handle_exception_sync
000000000002c200 l     O .rodata	000000000000001c __func__.0
000000000002c220 l     O .rodata	0000000000000016 __func__.1
000000000002c238 l     O .rodata	000000000000000c __func__.2
000000000002c248 l     O .rodata	000000000000000d __func__.3
000000000002c258 l     O .rodata	000000000000000d __func__.4
000000000002c268 l     O .rodata	000000000000001b __func__.5
000000000002c288 l     O .rodata	000000000000001a __func__.6
0000000000000000 l    df *ABS*	0000000000000000 handler.c
0000000000001bac l     F .text	0000000000000028 is_el2_data_abort_gpf
0000000000001bd4 l     F .text	0000000000000064 rmm_log
0000000000001c38 l     F .text	0000000000000250 rmi_log_on_exit
0000000000001e88 l     F .text	0000000000000074 report_unexpected
0000000000001efc l     F .text	0000000000000014 fatal_abort
0000000000200000 l     O .data	0000000000000028 rmi_status_string
0000000000200028 l     O .data	0000000000000020 rmm_trap_list
0000000000200048 l     O .data	0000000000000270 smc_handlers
000000000002c5d8 l     O .rodata	0000000000000010 __func__.0
000000000002c5e8 l     O .rodata	000000000000000e __func__.1
0000000000000000 l    df *ABS*	0000000000000000 init.c
00000000000022c4 l     F .text	000000000000002c rmm_arch_init
00000000000022f0 l     F .text	0000000000000064 rmm_log
0000000000000000 l    df *ABS*	0000000000000000 inject_exp.c
0000000000002440 l     F .text	0000000000000008 calc_pstate
0000000000002448 l     F .text	00000000000000a4 calc_esr_idabort
00000000000024ec l     F .text	0000000000000068 calc_vector_entry
000000000002c7b0 l     O .rodata	0000000000000012 __func__.0
000000000002c7c8 l     O .rodata	0000000000000011 __func__.1
0000000000000000 l    df *ABS*	0000000000000000 run.c
0000000000002670 l     F .text	000000000000010c save_sysreg_state
000000000000277c l     F .text	0000000000000114 restore_sysreg_state
0000000000002890 l     F .text	0000000000000014 configure_realm_stage2
00000000000028a4 l     F .text	0000000000000024 activate_events
00000000000028c8 l     F .text	0000000000000050 save_ns_state
0000000000002918 l     F .text	0000000000000070 restore_realm_state
0000000000002988 l     F .text	0000000000000050 restore_ns_state
00000000000029d8 l     F .text	0000000000000060 save_realm_state
0000000000207bc0 l     O .bss	0000000000044e00 g_ns_simd_ctx
00000000002033c0 l     O .bss	0000000000004800 g_ns_data
000000000024c9c0 l     O .bss	0000000000005000 g_pmu_data
000000000002c890 l     O .rodata	000000000000000d __func__.0
000000000002c8a0 l     O .rodata	000000000000001e __func__.1
0000000000000000 l    df *ABS*	0000000000000000 sysregs.c
0000000000002d98 l     F .text	00000000000000d8 handle_dc_sw_sysreg_trap
0000000000002e70 l     F .text	0000000000000028 get_sysreg_write_value
0000000000002e98 l     F .text	0000000000000028 emulate_sysreg_access_ns
0000000000002ec0 l     F .text	000000000000009c handle_icc_el1_sysreg_trap
0000000000002f5c l     F .text	0000000000000204 handle_id_sysreg_trap
0000000000003160 l     F .text	0000000000000064 rmm_log
00000000002002b8 l     O .data	0000000000000060 sysreg_handlers
000000000002c9f8 l     O .rodata	0000000000000016 __func__.0
000000000002ca10 l     O .rodata	000000000000001b __func__.1
000000000002ca30 l     O .rodata	000000000000001a __func__.2
0000000000000000 l    df *ABS*	0000000000000000 vmid.c
00000000002519c0 l     O .bss	0000000000002000 vmids
000000000002ca98 l     O .rodata	000000000000000a __func__.0
0000000000000000 l    df *ABS*	0000000000000000 feature.c
000000000002cb08 l     O .rodata	0000000000000017 __func__.0
0000000000000000 l    df *ABS*	0000000000000000 granule.c
000000000000347c l     F .text	000000000000018c granule_unlock
0000000000003608 l     F .text	0000000000000064 rmm_log
000000000002cc30 l     O .rodata	0000000000000025 __func__.0
000000000002cc58 l     O .rodata	0000000000000012 __func__.1
000000000002cc70 l     O .rodata	0000000000000012 __func__.2
0000000000000000 l    df *ABS*	0000000000000000 realm.c
00000000000037cc l     F .text	0000000000000034 s2_inconsistent_sl
0000000000003800 l     F .text	0000000000000030 s2_num_root_rtts
0000000000003830 l     F .text	0000000000000054 get_realm_params
0000000000003884 l     F .text	0000000000000070 validate_ipa_bits_and_sl
00000000000038f4 l     F .text	0000000000000138 validate_realm_params
0000000000003a2c l     F .text	0000000000000134 init_s2_starting_level
0000000000003b60 l     F .text	0000000000000274 total_root_rtt_refcount
0000000000003dd4 l     F .text	00000000000002a8 free_sl_rtts
000000000000407c l     F .text	00000000000003ec find_lock_rd_granules
0000000000004468 l     F .text	000000000000018c granule_unlock
000000000002ccf0 l     O .rodata	000000000000000d __func__.0
000000000002cd00 l     O .rodata	0000000000000012 __func__.1
000000000002cd18 l     O .rodata	0000000000000012 __func__.2
000000000002cd30 l     O .rodata	0000000000000017 __func__.3
000000000002cd48 l     O .rodata	0000000000000011 __func__.4
000000000002cd60 l     O .rodata	0000000000000025 __func__.5
000000000002cd88 l     O .rodata	0000000000000012 __func__.6
000000000002cda0 l     O .rodata	0000000000000013 __func__.7
0000000000000000 l    df *ABS*	0000000000000000 rec.c
0000000000004ea4 l     F .text	0000000000000048 init_rec_sysregs
0000000000004eec l     F .text	000000000000007c realm_vtcr
0000000000004f68 l     F .text	0000000000000078 init_common_sysregs
0000000000004fe0 l     F .text	0000000000000074 init_rec_regs
0000000000005054 l     F .text	000000000000007c rec_attestation_heap_init
00000000000050d0 l     F .text	0000000000000044 rec_simd_state_init
0000000000005114 l     F .text	00000000000000bc rec_aux_granules_init
00000000000051d0 l     F .text	00000000000002ac free_rec_aux_granules
000000000000547c l     F .text	000000000000018c granule_unlock
000000000002ce80 l     O .rodata	0000000000000012 __func__.0
000000000002ce98 l     O .rodata	0000000000000012 __func__.1
000000000002ceb0 l     O .rodata	000000000000000b __func__.10
000000000002cec0 l     O .rodata	000000000000000f __func__.11
000000000002ced0 l     O .rodata	0000000000000010 __func__.2
000000000002cee0 l     O .rodata	000000000000000d __func__.3
000000000002cef0 l     O .rodata	0000000000000012 __func__.4
000000000002cf08 l     O .rodata	0000000000000025 __func__.5
000000000002cf30 l     O .rodata	0000000000000012 __func__.6
000000000002cf48 l     O .rodata	0000000000000014 __func__.7
000000000002cf60 l     O .rodata	000000000000001a __func__.8
000000000002cf80 l     O .rodata	0000000000000016 __func__.9
000000000002cf98 l     O .rodata	0000000000000020 sl0_val
0000000000000000 l    df *ABS*	0000000000000000 rtt.c
000000000000640c l     F .text	0000000000000040 __granule_refcount_inc
000000000000644c l     F .text	0000000000000040 __granule_get
000000000000648c l     F .text	0000000000000068 pack_return_code
00000000000064f4 l     F .text	0000000000000044 validate_map_addr
0000000000006538 l     F .text	0000000000000044 validate_rtt_structure_cmds
000000000000657c l     F .text	000000000000002c validate_rtt_map_cmds
00000000000065a8 l     F .text	000000000000003c validate_rtt_entry_cmds
00000000000065e4 l     F .text	000000000000004c validate_data_create_unknown
0000000000006630 l     F .text	0000000000000024 validate_data_create
0000000000006654 l     F .text	0000000000000204 update_ripas
0000000000006858 l     F .text	000000000000018c granule_unlock
00000000000069e4 l     F .text	0000000000000198 rtt_set_ripas_range
0000000000006b7c l     F .text	00000000000003c0 data_create
0000000000006f3c l     F .text	0000000000000408 map_unmap_ns
000000000002d140 l     O .rodata	0000000000000012 __func__.0
000000000002d158 l     O .rodata	0000000000000013 __func__.1
000000000002d170 l     O .rodata	0000000000000012 __func__.10
000000000002d188 l     O .rodata	0000000000000011 __func__.11
000000000002d1a0 l     O .rodata	000000000000000e __func__.12
000000000002d1b0 l     O .rodata	0000000000000017 __func__.13
000000000002d1c8 l     O .rodata	0000000000000025 __func__.14
000000000002d1f0 l     O .rodata	0000000000000012 __func__.15
000000000002d208 l     O .rodata	000000000000000d __func__.16
000000000002d218 l     O .rodata	000000000000000f __func__.17
000000000002d228 l     O .rodata	0000000000000011 __func__.2
000000000002d240 l     O .rodata	000000000000000c __func__.3
000000000002d250 l     O .rodata	0000000000000013 __func__.4
000000000002d268 l     O .rodata	000000000000000d __func__.5
000000000002d278 l     O .rodata	0000000000000010 __func__.6
000000000002d288 l     O .rodata	0000000000000017 __func__.7
000000000002d2a0 l     O .rodata	000000000000000e __func__.8
000000000002d2b0 l     O .rodata	000000000000000d __func__.9
0000000000000000 l    df *ABS*	0000000000000000 run.c
000000000000966c l     F .text	0000000000000008 reset_last_run_info
0000000000009674 l     F .text	0000000000000058 complete_set_ripas
00000000000096cc l     F .text	000000000000003c complete_sysreg_emulation
0000000000009708 l     F .text	000000000000018c granule_unlock
0000000000009894 l     F .text	000000000000016c complete_mmio_emulation
0000000000009a00 l     F .text	0000000000000070 complete_sea_insertion
0000000000009a70 l     F .text	000000000000006c complete_host_call
000000000002d308 l     O .rodata	000000000000001b __func__.0
000000000002d328 l     O .rodata	000000000000000b __func__.1
000000000002d338 l     O .rodata	000000000000000c __func__.2
000000000002d348 l     O .rodata	0000000000000025 __func__.4
000000000002d370 l     O .rodata	0000000000000012 __func__.5
000000000002d388 l     O .rodata	000000000000000e __func__.6
0000000000000000 l    df *ABS*	0000000000000000 system.c
0000000000000000 l    df *ABS*	0000000000000000 config.c
000000000002d3d8 l     O .rodata	0000000000000025 __func__.0
000000000002d400 l     O .rodata	0000000000000012 __func__.1
000000000002d418 l     O .rodata	0000000000000018 __func__.2
0000000000000000 l    df *ABS*	0000000000000000 feature.c
0000000000000000 l    df *ABS*	0000000000000000 host_call.c
000000000000a184 l     F .text	0000000000000344 do_host_call
000000000002d4c0 l     O .rodata	0000000000000025 __func__.0
000000000002d4e8 l     O .rodata	0000000000000012 __func__.1
000000000002d500 l     O .rodata	000000000000000d __func__.2
0000000000000000 l    df *ABS*	0000000000000000 msk_call.c
0000000000000000 l    df *ABS*	0000000000000000 logger.c
000000000000a5d4 l     F .text	000000000000001c fid_to_rsi_logger
000000000000a5f0 l     F .text	0000000000000064 print_status
000000000000a654 l     F .text	0000000000000020 print_code
000000000000a674 l     F .text	0000000000000194 print_entry
000000000000a808 l     F .text	0000000000000064 rmm_log
0000000000200318 l     O .data	00000000000000b0 rsi_logger
00000000002003c8 l     O .data	0000000000000020 rsi_status_string
000000000002d6c0 l     O .rodata	000000000000000c __func__.0
000000000002d6d0 l     O .rodata	0000000000000010 __func__.1
0000000000000000 l    df *ABS*	0000000000000000 memory.c
0000000000000000 l    df *ABS*	0000000000000000 psci.c
000000000000ab04 l     F .text	0000000000000014 psci_version
000000000000ab18 l     F .text	0000000000000024 psci_reset_rec
000000000000ab3c l     F .text	000000000000008c psci_features
000000000000abc8 l     F .text	000000000000008c complete_psci_cpu_on
000000000000ac54 l     F .text	0000000000000030 complete_psci_affinity_info
000000000000ac84 l     F .text	000000000000007c forward_args_to_host
000000000000ad00 l     F .text	0000000000000030 psci_cpu_suspend
000000000000ad30 l     F .text	0000000000000034 psci_cpu_off
000000000000ad64 l     F .text	000000000000004c rd_map_read_rec_count
000000000000adb0 l     F .text	00000000000000d4 psci_cpu_on
000000000000ae84 l     F .text	00000000000000c0 psci_affinity_info
000000000000af44 l     F .text	0000000000000250 system_off_reboot
000000000000b194 l     F .text	0000000000000040 psci_system_off_reset
000000000002d720 l     O .rodata	0000000000000016 __func__.0
000000000002d738 l     O .rodata	0000000000000025 __func__.1
000000000002d760 l     O .rodata	0000000000000012 __func__.2
000000000002d778 l     O .rodata	000000000000000d __func__.3
000000000002d788 l     O .rodata	0000000000000012 __func__.4
000000000002d7a0 l     O .rodata	0000000000000016 __func__.5
000000000002d7b8 l     O .rodata	0000000000000015 __func__.6
0000000000000000 l    df *ABS*	0000000000000000 realm_ipa_helper.c
000000000002d838 l     O .rodata	0000000000000014 __func__.0
000000000002d850 l     O .rodata	0000000000000025 __func__.1
000000000002d878 l     O .rodata	0000000000000012 __func__.2
000000000002d890 l     O .rodata	000000000000000d __func__.3
000000000002d8a0 l     O .rodata	0000000000000010 __func__.4
0000000000000000 l    df *ABS*	0000000000000000 realm_attest.c
000000000000bbac l     F .text	0000000000000014 get_rpv
000000000000bbc0 l     F .text	0000000000000010 check_pending_irq
000000000000bbd0 l     F .text	0000000000000064 rmm_log
000000000000bc34 l     F .text	0000000000000068 attest_token_continue_sign_state
000000000000bc9c l     F .text	0000000000000330 attest_token_continue_write_state
000000000002da50 l     O .rodata	0000000000000015 __func__.0
000000000002da68 l     O .rodata	000000000000001c __func__.1
000000000002da88 l     O .rodata	000000000000001e __func__.2
000000000002daa8 l     O .rodata	0000000000000022 __func__.3
000000000002dad0 l     O .rodata	0000000000000021 __func__.4
000000000002daf8 l     O .rodata	0000000000000025 __func__.5
000000000002db20 l     O .rodata	0000000000000012 __func__.6
000000000002db38 l     O .rodata	000000000000000d __func__.7
000000000002db48 l     O .rodata	000000000000001d __func__.8
0000000000000000 l    df *ABS*	0000000000000000 system.c
0000000000000000 l    df *ABS*	0000000000000000 assert.c
000000000000cac8 l     F .text	0000000000000064 rmm_log
0000000000000000 l    df *ABS*	0000000000000000 memcpy.c
0000000000000000 l    df *ABS*	0000000000000000 printf.c
000000000000cb84 l     F .text	0000000000000018 _out_buffer
000000000000cb9c l     F .text	0000000000000008 _out_null
000000000000cba4 l     F .text	0000000000000040 _atoi
000000000000cbe4 l     F .text	00000000000000dc _out_rev
000000000000ccc0 l     F .text	000000000000018c _ntoa_format
000000000000ce4c l     F .text	00000000000000d8 _ntoa_long
000000000000cf24 l     F .text	00000000000000d8 _ntoa_long_long
000000000000cffc l     F .text	0000000000000bd4 _vsnprintf
000000000000dbd0 l     F .text	0000000000000024 _out_char
0000000000000000 l    df *ABS*	0000000000000000 memset.S.obj
000000000000dd3c l       .text	0000000000000000 exit
000000000000dcd8 l       .text	0000000000000000 aligned
000000000000dcc4 l       .text	0000000000000000 unaligned
000000000000dce8 l       .text	0000000000000000 x1_zero
000000000000dd08 l       .text	0000000000000000 less_64
000000000000dcf0 l       .text	0000000000000000 write_64
000000000000dd14 l       .text	0000000000000000 less_32
000000000000dd1c l       .text	0000000000000000 less_16
000000000000dd24 l       .text	0000000000000000 less_8
000000000000dd2c l       .text	0000000000000000 less_4
000000000000dd34 l       .text	0000000000000000 less_2
0000000000000000 l    df *ABS*	0000000000000000 qemu_setup.c
000000000000dd40 l     F .text	0000000000000064 rmm_log
000000000002dbd8 l     O .rodata	000000000000000b __func__.0
0000000000000000 l    df *ABS*	0000000000000000 qemu_memory.c
000000000002dc40 l     O .rodata	0000000000000015 __func__.0
0000000000000000 l    df *ABS*	0000000000000000 qemu_granule.c
00000000002539c0 l     O .bss	0000000000000018 qemu_dram
000000000002dcb0 l     O .rodata	0000000000000019 __func__.0
0000000000000000 l    df *ABS*	0000000000000000 buffer.c
000000000000e010 l     F .text	0000000000000064 rmm_log
000000000000e0d8 l     F .text	0000000000000060 slot_to_descriptor
000000000000e2e4 l     F .text	000000000000004c ns_granule_map
00000000002539d8 l     O .bss	0000000000000300 llt_info_cache.8
000000000002de80 l     O .rodata	0000000000000016 __func__.0
000000000002de98 l     O .rodata	0000000000000014 __func__.1
000000000002deb0 l     O .rodata	0000000000000010 __func__.2
000000000002dec0 l     O .rodata	000000000000000f __func__.3
000000000002ded0 l     O .rodata	000000000000000f __func__.4
000000000002dee0 l     O .rodata	000000000000000c __func__.5
000000000002def0 l     O .rodata	0000000000000013 __func__.6
000000000002df08 l     O .rodata	000000000000001e __func__.7
000000000002df28 l     O .rodata	000000000000000b __func__.9
0000000000000000 l    df *ABS*	0000000000000000 granule.c
000000000000e650 l     F .text	00000000000000d4 sort_granules
000000000000e724 l     F .text	0000000000000044 granule_from_idx
0000000000253cd8 l     O .bss	0000000002000000 granules
000000000000ea74 l     F .text	000000000000023c find_lock_granules
000000000002e018 l     O .rodata	0000000000000013 __func__.0
000000000002e030 l     O .rodata	0000000000000011 __func__.1
000000000002e048 l     O .rodata	0000000000000010 __func__.2
000000000002e058 l     O .rodata	0000000000000017 __func__.3
000000000002e070 l     O .rodata	0000000000000025 __func__.4
000000000002e098 l     O .rodata	0000000000000012 __func__.5
000000000002e0b0 l     O .rodata	0000000000000011 __func__.6
000000000002e0c8 l     O .rodata	0000000000000010 __func__.7
000000000002e0d8 l     O .rodata	000000000000000d __func__.8
0000000000000000 l    df *ABS*	0000000000000000 s2tt.c
000000000000ef0c l     F .text	0000000000000048 stage2_tlbi_ipa
000000000000ef54 l     F .text	0000000000000024 s2tte_has_hipas
000000000000ef78 l     F .text	0000000000000040 s2tte_has_unassigned_ripas
000000000000efb8 l     F .text	0000000000000040 s2tte_has_assigned_ripas
000000000000f0d0 l     F .text	0000000000000058 s2tte_check
000000000000f158 l     F .text	000000000000005c s2tte_has_pa
000000000000f1b4 l     F .text	0000000000000014 s2tte_is_live
000000000000f1c8 l     F .text	0000000000000048 __table_is_uniform_block
000000000000f210 l     F .text	0000000000000054 s2_sl_addr_to_idx
000000000000f264 l     F .text	0000000000000054 addr_level_mask
000000000000f2b8 l     F .text	000000000000004c s2_addr_to_idx
000000000000f304 l     F .text	000000000000004c __table_get_entry
000000000000f350 l     F .text	0000000000000030 __find_next_level_idx
000000000000f380 l     F .text	00000000000000e0 __find_lock_next_level
00000000000102a8 l     F .text	00000000000000f8 __table_maps_block
000000000002e2f8 l     O .rodata	000000000000000f __func__.0
000000000002e308 l     O .rodata	0000000000000009 __func__.1
000000000002e318 l     O .rodata	0000000000000020 __func__.10
000000000002e338 l     O .rodata	000000000000000f __func__.11
000000000002e348 l     O .rodata	0000000000000010 __func__.12
000000000002e358 l     O .rodata	0000000000000012 __func__.13
000000000002e370 l     O .rodata	0000000000000025 __func__.14
000000000002e398 l     O .rodata	0000000000000012 __func__.15
000000000002e3b0 l     O .rodata	000000000000000d __func__.16
000000000002e3c0 l     O .rodata	0000000000000012 __func__.17
000000000002e3d8 l     O .rodata	0000000000000015 __func__.18
000000000002e3f0 l     O .rodata	0000000000000016 __func__.2
000000000002e408 l     O .rodata	000000000000000f __func__.3
000000000002e418 l     O .rodata	0000000000000010 __func__.4
000000000002e428 l     O .rodata	0000000000000013 __func__.5
000000000002e440 l     O .rodata	0000000000000019 __func__.6
000000000002e460 l     O .rodata	0000000000000020 __func__.7
000000000002e480 l     O .rodata	000000000000001a __func__.8
000000000002e4a0 l     O .rodata	000000000000001c __func__.9
0000000000000000 l    df *ABS*	0000000000000000 timers.c
0000000000000000 l    df *ABS*	0000000000000000 pl011.c
0000000000010648 l     F .text	0000000000000030 uart_putc
0000000000000000 l    df *ABS*	0000000000000000 plat_common_init.c
0000000000010764 l     F .text	0000000000000064 rmm_log
0000000000031000 l     O xlat_table	0000000000007000 static_s1tt
0000000002253d00 l     O .bss	0000000000000040 runtime_tbls
0000000002253d40 l     O .bss	0000000000000040 runtime_xlat_ctx
0000000002253d80 l     O .bss	0000000000000040 runtime_xlat_ctx_cfg
0000000002253dc0 l     O .bss	0000000000000140 static_regions
000000000002e5f0 l     O .rodata	0000000000000018 __func__.0
000000000002e608 l     O .rodata	000000000000000f __func__.1
0000000000000000 l    df *ABS*	0000000000000000 attestation_token.c
0000000000010ae8 l     F .text	0000000000000064 rmm_log
0000000000010b4c l     F .text	00000000000000f0 attest_token_encode_start
0000000000010c3c l     F .text	00000000000000a4 attest_get_hash_algo_text
000000000002e740 l     O .rodata	0000000000000015 __func__.0
000000000002e758 l     O .rodata	000000000000001a __func__.1
000000000002e778 l     O .rodata	000000000000001a __func__.2
000000000002e798 l     O .rodata	000000000000001a __func__.3
000000000002e7b8 l     O .rodata	0000000000000018 __func__.4
000000000002e7d0 l     O .rodata	0000000000000018 __func__.5
0000000000000000 l    df *ABS*	0000000000000000 attestation_utils.c
0000000002253f30 l     O .bss	0000000000003eec mem_buf
0000000002253f00 l     O .bss	0000000000000001 attest_initialized
0000000002253f08 l     O .bss	0000000000000028 init_ctx
000000000002e838 l     O .rodata	000000000000001f __func__.0
000000000002e858 l     O .rodata	000000000000001a __func__.1
0000000000000000 l    df *ABS*	0000000000000000 attestation_key.c
000000000001138c l     F .text	0000000000000064 rmm_log
00000000000113f0 l     F .text	000000000000004c attest_get_realm_public_key_hash
0000000002257ed0 l     O .bss	0000000000001000 rmm_platform_token_buf
0000000002257e1c l     O .bss	0000000000000004 attest_signing_key
0000000002257e20 l     O .bss	0000000000000001 attest_signing_key_loaded
0000000002257e28 l     O .bss	0000000000000061 realm_attest_public_key
0000000002257e90 l     O .bss	0000000000000020 realm_attest_public_key_hash
0000000002257eb0 l     O .bss	0000000000000008 realm_attest_public_key_hash_len
0000000002257eb8 l     O .bss	0000000000000008 realm_attest_public_key_len
0000000002257ec0 l     O .bss	0000000000000010 rmm_platform_token
000000000002e950 l     O .rodata	000000000000001a __func__.0
0000000000000000 l    df *ABS*	0000000000000000 attestation_rnd.c
00000000000117d4 l     F .text	0000000000000098 get_random_seed
0000000002258ed0 l     O .bss	0000000000001000 cpu_drbg_ctx
0000000002259ed0 l     O .bss	0000000000000001 prng_init_done
000000000002ea00 l     O .rodata	0000000000000010 __func__.0
000000000002ea10 l     O .rodata	0000000000000015 __func__.1
000000000002ea28 l     O .rodata	0000000000000020 __func__.2
0000000000000000 l    df *ABS*	0000000000000000 memory_alloc.c
0000000000011a18 l     F .text	0000000000000094 verify_header
0000000000011aac l     F .text	000000000000008c verify_chain
0000000000011b38 l     F .text	0000000000000064 rmm_log
0000000000011b9c l     F .text	0000000000000254 buffer_alloc_calloc_with_heap
0000000000011df0 l     F .text	0000000000000248 buffer_alloc_free_with_heap
0000000002259ed8 l     O .bss	0000000000000100 ctx_per_cpu
000000000002eb40 l     O .rodata	0000000000000021 __func__.1
000000000002eb68 l     O .rodata	0000000000000014 __func__.10
000000000002eb80 l     O .rodata	000000000000001a __func__.4
000000000002eba0 l     O .rodata	0000000000000018 __func__.5
000000000002ebb8 l     O .rodata	000000000000001c __func__.6
000000000002ebd8 l     O .rodata	0000000000000012 __func__.7
000000000002ebf0 l     O .rodata	000000000000001e __func__.8
000000000002ec10 l     O .rodata	000000000000000d __func__.9
0000000000000000 l    df *ABS*	0000000000000000 rmm_el3_ifc.c
0000000002259fd8 l     O .bss	0000000000000001 initialized
0000000002259fe0 l     O .bss	0000000000000008 rmm_el3_ifc_abi_version
0000000002259fe8 l     O .bss	0000000000000008 rmm_shared_buffer_start_pa
000000000002ecf0 l     O .rodata	0000000000000018 __func__.0
000000000002ed08 l     O .rodata	000000000000001e __func__.1
000000000002ed28 l     O .rodata	0000000000000011 __func__.2
0000000000000000 l    df *ABS*	0000000000000000 rmm_el3_ifc_manifest.c
0000000000012570 l     F .text	0000000000000064 rmm_log
0000000002259ff8 l     O .bss	0000000000000028 local_core_manifest
000000000225a020 l     O .bss	0000000000000001 manifest_processed
000000000002ee78 l     O .rodata	0000000000000027 __func__.0
000000000002eea0 l     O .rodata	0000000000000021 __func__.2
000000000002eec8 l     O .rodata	0000000000000022 __func__.3
0000000000000000 l    df *ABS*	0000000000000000 rmm_el3_runtime.c
0000000000012830 l     F .text	0000000000000064 rmm_log
000000000225a028 l     O .bss	0000000000000004 shared_area_lock
000000000002f000 l     O .rodata	000000000000001f __func__.0
000000000002f020 l     O .rodata	0000000000000021 __func__.1
0000000000000000 l    df *ABS*	0000000000000000 rmm_el3_ifc_helpers.S.obj
0000000000000000 l    df *ABS*	0000000000000000 t_cose_sign_sign.c
0000000000000000 l    df *ABS*	0000000000000000 t_cose_signature_sign_restart.c
0000000000012ce4 l     F .text	0000000000000090 t_cose_signature_sign_headers_restart_cb
0000000000012d74 l     F .text	000000000000000c t_cose_signature_sign_restart_cb
0000000000012d80 l     F .text	0000000000000110 t_cose_signature_sign1_restart_cb
0000000000000000 l    df *ABS*	0000000000000000 t_cose_util.c
0000000000012eec l     F .text	0000000000000060 hash_bstr
000000000002f068 l     O .rodata	000000000000001c hash_alg_map.0
0000000000000000 l    df *ABS*	0000000000000000 t_cose_psa_crypto.c
0000000000013190 l     F .text	0000000000000090 cose_alg_id_to_psa_alg_id
0000000000013220 l     F .text	0000000000000044 cose_hash_alg_id_to_psa
0000000000013264 l     F .text	0000000000000024 psa_status_to_t_cose_error_signing
0000000000013288 l     F .text	0000000000000024 psa_status_to_t_cose_error_hash
000000000002f088 l     O .rodata	0000000000000014 error_map.1
000000000002f0a0 l     O .rodata	000000000000001c error_map.2
0000000000000000 l    df *ABS*	0000000000000000 t_cose_parameters.c
00000000000135b4 l     F .text	0000000000000034 param_dup_detect_2
00000000000135e8 l     F .text	0000000000000048 param_dup_detect
0000000000013630 l     F .text	0000000000000064 encode_crit_parameter
0000000000013694 l     F .text	000000000000018c t_cose_params_encode
0000000000000000 l    df *ABS*	0000000000000000 qcbor_encode.c
00000000000139d8 l     F .text	0000000000000058 AppendCBORHead
0000000000013a8c l     F .text	0000000000000098 InsertCBORHead
000000000002f0c0 l     O .rodata	0000000000000004 aIterate.0
0000000000000000 l    df *ABS*	0000000000000000 UsefulBuf.c
0000000000000000 l    df *ABS*	0000000000000000 gic.c
00000000000140e4 l     F .text	0000000000000078 is_valid_vintid
000000000001415c l     F .text	000000000000012c read_lrs
0000000000014288 l     F .text	000000000000012c write_lrs
00000000000143b4 l     F .text	000000000000006c read_aprs
0000000000014420 l     F .text	000000000000006c write_aprs
000000000225a030 l     O .bss	0000000000000020 gic_virt_feature
000000000002f138 l     O .rodata	0000000000000016 __func__.0
0000000000000000 l    df *ABS*	0000000000000000 measurement.c
00000000000147e4 l     F .text	00000000000001b8 do_hash
000000000001499c l     F .text	000000000000028c do_extend
000000000002f290 l     O .rodata	000000000000000a __func__.0
000000000002f2a0 l     O .rodata	0000000000000013 __func__.1
000000000002f2b8 l     O .rodata	0000000000000008 __func__.2
0000000000000000 l    df *ABS*	0000000000000000 rim.c
000000000002f2c0 l     O .rodata	0000000000000015 __func__.0
0000000000000000 l    df *ABS*	0000000000000000 hmac_drbg.c
0000000000015374 l     F .text	00000000000001f4 hmac_drbg_reseed_core
0000000000000000 l    df *ABS*	0000000000000000 md.c
0000000000000000 l    df *ABS*	0000000000000000 platform_util.c
0000000000200428 l     O .data	0000000000000008 memset_func
0000000000000000 l    df *ABS*	0000000000000000 psa_crypto.c
00000000000164d8 l     F .text	0000000000000018 psa_get_key_id
00000000000164f0 l     F .text	0000000000000018 psa_get_key_lifetime
0000000000016508 l     F .text	000000000000001c psa_get_key_bits
0000000000016524 l     F .text	0000000000000024 psa_key_lifetime_is_external
0000000000016548 l     F .text	0000000000000040 key_type_is_raw_bytes
000000000225a050 l     O .bss	0000000000000018 global_data
0000000000016cf8 l     F .text	0000000000000074 psa_wipe_tag_output_buffer
0000000000016e8c l     F .text	00000000000000a4 psa_mac_key_can_do
00000000000170bc l     F .text	0000000000000820 psa_key_algorithm_permits
00000000000178dc l     F .text	0000000000000268 psa_key_policy_permits
0000000000017b44 l     F .text	0000000000000100 psa_get_and_lock_key_slot_with_policy
0000000000017dcc l     F .text	0000000000000084 psa_export_key_buffer_internal
0000000000018034 l     F .text	0000000000000038 psa_validate_key_policy
000000000001806c l     F .text	0000000000000124 psa_validate_key_attributes
0000000000018190 l     F .text	00000000000000e0 psa_start_key_creation
0000000000018270 l     F .text	0000000000000060 psa_finish_key_creation
00000000000182d0 l     F .text	0000000000000034 psa_fail_key_creation
0000000000018304 l     F .text	0000000000000094 psa_validate_optional_attributes
00000000000187ec l     F .text	0000000000000294 psa_sign_verify_check_alg
0000000000200430 l     O .data	0000000000000004 psa_interruptible_max_ops
0000000000018abc l     F .text	000000000000004c psa_sign_hash_abort_internal
0000000000019298 l     F .text	0000000000000028 mbedtls_psa_random_init
00000000000192c0 l     F .text	0000000000000028 mbedtls_psa_random_free
00000000000192e8 l     F .text	0000000000000018 mbedtls_psa_random_seed
0000000000000000 l    df *ABS*	0000000000000000 psa_crypto_client.c
0000000000000000 l    df *ABS*	0000000000000000 psa_crypto_driver_wrappers.c
000000000001961c l     F .text	0000000000000018 psa_get_key_lifetime
0000000000000000 l    df *ABS*	0000000000000000 psa_crypto_ecp.c
0000000000000000 l    df *ABS*	0000000000000000 psa_crypto_hash.c
0000000000000000 l    df *ABS*	0000000000000000 psa_crypto_slot_management.c
000000000001a85c l     F .text	0000000000000028 mbedtls_svc_key_id_equal
000000000001a884 l     F .text	0000000000000024 psa_is_key_slot_occupied
000000000001a8a8 l     F .text	0000000000000024 psa_is_key_slot_locked
000000000001a8cc l     F .text	0000000000000038 psa_key_id_is_volatile
000000000001a904 l     F .text	0000000000000040 psa_lock_key_slot
000000000001a944 l     F .text	0000000000000024 psa_key_lifetime_is_external
000000000225a068 l     O .bss	0000000000000708 global_data
000000000001a9e0 l     F .text	0000000000000174 psa_get_and_lock_key_slot_in_memory
0000000000000000 l    df *ABS*	0000000000000000 sha256.c
000000000002f458 l     O .rodata	0000000000000100 K
000000000001c8e8 l     F .text	0000000000000074 mbedtls_internal_sha256_process_many
0000000000000000 l    df *ABS*	0000000000000000 sha512.c
000000000002f558 l     O .rodata	0000000000000280 K
000000000001d9fc l     F .text	0000000000000074 mbedtls_internal_sha512_process_many
0000000000000000 l    df *ABS*	0000000000000000 bignum.c
000000000001decc l     F .text	0000000000000030 mbedtls_mpi_zeroize
000000000001e1e8 l     F .text	0000000000000090 mbedtls_mpi_resize_clear
000000000001e408 l     F .text	000000000000002c mpi_sint_abs
000000000001f248 l     F .text	000000000000012c add_sub_mpi
000000000001f854 l     F .text	00000000000002d4 mbedtls_int_div_int
000000000002043c l     F .text	0000000000000034 mpi_montg_init
0000000000020470 l     F .text	0000000000000070 mpi_montmul
00000000000204e0 l     F .text	0000000000000064 mpi_montred
0000000000020544 l     F .text	00000000000000a8 mpi_select
0000000000000000 l    df *ABS*	0000000000000000 bignum_core.c
0000000000021c30 l     F .text	000000000000001c mpi_bigendian_to_host
0000000000000000 l    df *ABS*	0000000000000000 constant_time.c
0000000000023980 l     F .text	000000000000006c mbedtls_ct_cond_select_sign
0000000000000000 l    df *ABS*	0000000000000000 ecdsa.c
0000000000023ccc l     F .text	0000000000000034 ecdsa_restart_ver_init
0000000000023d00 l     F .text	0000000000000044 ecdsa_restart_ver_free
0000000000023d44 l     F .text	0000000000000048 ecdsa_restart_sig_init
0000000000023d8c l     F .text	0000000000000040 ecdsa_restart_sig_free
0000000000023dcc l     F .text	0000000000000028 ecdsa_restart_det_init
0000000000023df4 l     F .text	0000000000000038 ecdsa_restart_det_free
0000000000023e2c l     F .text	0000000000000118 derive_mpi
0000000000000000 l    df *ABS*	0000000000000000 ecp.c
000000000225a770 l     O .bss	0000000000000004 ecp_max_ops
0000000000024a0c l     F .text	0000000000000040 ecp_restart_rsm_init
0000000000024a4c l     F .text	00000000000000a0 ecp_restart_rsm_free
0000000000024aec l     F .text	0000000000000034 ecp_restart_ma_init
0000000000024b20 l     F .text	0000000000000044 ecp_restart_ma_free
0000000000024ce8 l     F .text	0000000000000048 mpi_init_many
0000000000024d30 l     F .text	0000000000000048 mpi_free_many
0000000000024f1c l     F .text	0000000000000040 ecp_group_is_static_comb_table
0000000000025be0 l     F .text	0000000000000168 mbedtls_ecp_sw_derive_y
00000000000255ac l     F .text	000000000000016c ecp_modp
0000000000025718 l     F .text	000000000000006c mbedtls_mpi_mul_mod
0000000000025784 l     F .text	00000000000000b4 mbedtls_mpi_sub_mod
0000000000025838 l     F .text	00000000000000a4 mbedtls_mpi_add_mod
00000000000258dc l     F .text	00000000000000a4 mbedtls_mpi_mul_int_mod
0000000000025980 l     F .text	00000000000000b8 mbedtls_mpi_sub_int_mod
0000000000025a38 l     F .text	000000000000009c mbedtls_mpi_shift_l_mod
0000000000025ad4 l     F .text	000000000000010c ecp_sw_rhs
0000000000025d48 l     F .text	0000000000000188 ecp_normalize_jac
0000000000025ed0 l     F .text	0000000000000540 ecp_normalize_jac_many
0000000000026410 l     F .text	00000000000000c0 ecp_safe_invert_jac
00000000000264d0 l     F .text	0000000000000658 ecp_double_jac
0000000000026b28 l     F .text	0000000000000528 ecp_add_mixed
0000000000027050 l     F .text	00000000000001a0 ecp_randomize_jac
00000000000271f0 l     F .text	000000000000026c ecp_comb_recode_core
000000000002745c l     F .text	00000000000006c8 ecp_precompute_comb
0000000000027b24 l     F .text	0000000000000184 ecp_select_comb
0000000000027ca8 l     F .text	00000000000002a8 ecp_mul_comb_core
0000000000027f50 l     F .text	000000000000012c ecp_comb_recode_scalar
000000000002807c l     F .text	0000000000000234 ecp_mul_comb_after_precomp
00000000000282b0 l     F .text	00000000000000a0 ecp_pick_window_size
0000000000028350 l     F .text	00000000000004b4 ecp_mul_comb
0000000000028804 l     F .text	0000000000000180 ecp_mul_restartable_internal
0000000000028a2c l     F .text	0000000000000150 ecp_check_pubkey_sw
0000000000028c44 l     F .text	0000000000000054 mbedtls_ecp_gen_privkey_sw
0000000000000000 l    df *ABS*	0000000000000000 ecp_curves.c
0000000000200438 l     O .data	0000000000000008 mpi_one
000000000002f7d8 l     O .rodata	0000000000000030 secp384r1_p
000000000002f808 l     O .rodata	0000000000000030 secp384r1_b
000000000002f838 l     O .rodata	0000000000000030 secp384r1_gx
000000000002f868 l     O .rodata	0000000000000030 secp384r1_gy
000000000002f898 l     O .rodata	0000000000000030 secp384r1_n
000000000002f8c8 l     O .rodata	0000000000000030 secp384r1_T_0_X
000000000002f8f8 l     O .rodata	0000000000000030 secp384r1_T_0_Y
000000000002f928 l     O .rodata	0000000000000030 secp384r1_T_1_X
000000000002f958 l     O .rodata	0000000000000030 secp384r1_T_1_Y
000000000002f988 l     O .rodata	0000000000000030 secp384r1_T_2_X
000000000002f9b8 l     O .rodata	0000000000000030 secp384r1_T_2_Y
000000000002f9e8 l     O .rodata	0000000000000030 secp384r1_T_3_X
000000000002fa18 l     O .rodata	0000000000000030 secp384r1_T_3_Y
000000000002fa48 l     O .rodata	0000000000000030 secp384r1_T_4_X
000000000002fa78 l     O .rodata	0000000000000030 secp384r1_T_4_Y
000000000002faa8 l     O .rodata	0000000000000030 secp384r1_T_5_X
000000000002fad8 l     O .rodata	0000000000000030 secp384r1_T_5_Y
000000000002fb08 l     O .rodata	0000000000000030 secp384r1_T_6_X
000000000002fb38 l     O .rodata	0000000000000030 secp384r1_T_6_Y
000000000002fb68 l     O .rodata	0000000000000030 secp384r1_T_7_X
000000000002fb98 l     O .rodata	0000000000000030 secp384r1_T_7_Y
000000000002fbc8 l     O .rodata	0000000000000030 secp384r1_T_8_X
000000000002fbf8 l     O .rodata	0000000000000030 secp384r1_T_8_Y
000000000002fc28 l     O .rodata	0000000000000030 secp384r1_T_9_X
000000000002fc58 l     O .rodata	0000000000000030 secp384r1_T_9_Y
000000000002fc88 l     O .rodata	0000000000000030 secp384r1_T_10_X
000000000002fcb8 l     O .rodata	0000000000000030 secp384r1_T_10_Y
000000000002fce8 l     O .rodata	0000000000000030 secp384r1_T_11_X
000000000002fd18 l     O .rodata	0000000000000030 secp384r1_T_11_Y
000000000002fd48 l     O .rodata	0000000000000030 secp384r1_T_12_X
000000000002fd78 l     O .rodata	0000000000000030 secp384r1_T_12_Y
000000000002fda8 l     O .rodata	0000000000000030 secp384r1_T_13_X
000000000002fdd8 l     O .rodata	0000000000000030 secp384r1_T_13_Y
000000000002fe08 l     O .rodata	0000000000000030 secp384r1_T_14_X
000000000002fe38 l     O .rodata	0000000000000030 secp384r1_T_14_Y
000000000002fe68 l     O .rodata	0000000000000030 secp384r1_T_15_X
000000000002fe98 l     O .rodata	0000000000000030 secp384r1_T_15_Y
000000000002fec8 l     O .rodata	0000000000000030 secp384r1_T_16_X
000000000002fef8 l     O .rodata	0000000000000030 secp384r1_T_16_Y
000000000002ff28 l     O .rodata	0000000000000030 secp384r1_T_17_X
000000000002ff58 l     O .rodata	0000000000000030 secp384r1_T_17_Y
000000000002ff88 l     O .rodata	0000000000000030 secp384r1_T_18_X
000000000002ffb8 l     O .rodata	0000000000000030 secp384r1_T_18_Y
000000000002ffe8 l     O .rodata	0000000000000030 secp384r1_T_19_X
0000000000030018 l     O .rodata	0000000000000030 secp384r1_T_19_Y
0000000000030048 l     O .rodata	0000000000000030 secp384r1_T_20_X
0000000000030078 l     O .rodata	0000000000000030 secp384r1_T_20_Y
00000000000300a8 l     O .rodata	0000000000000030 secp384r1_T_21_X
00000000000300d8 l     O .rodata	0000000000000030 secp384r1_T_21_Y
0000000000030108 l     O .rodata	0000000000000030 secp384r1_T_22_X
0000000000030138 l     O .rodata	0000000000000030 secp384r1_T_22_Y
0000000000030168 l     O .rodata	0000000000000030 secp384r1_T_23_X
0000000000030198 l     O .rodata	0000000000000030 secp384r1_T_23_Y
00000000000301c8 l     O .rodata	0000000000000030 secp384r1_T_24_X
00000000000301f8 l     O .rodata	0000000000000030 secp384r1_T_24_Y
0000000000030228 l     O .rodata	0000000000000030 secp384r1_T_25_X
0000000000030258 l     O .rodata	0000000000000030 secp384r1_T_25_Y
0000000000030288 l     O .rodata	0000000000000030 secp384r1_T_26_X
00000000000302b8 l     O .rodata	0000000000000030 secp384r1_T_26_Y
00000000000302e8 l     O .rodata	0000000000000030 secp384r1_T_27_X
0000000000030318 l     O .rodata	0000000000000030 secp384r1_T_27_Y
0000000000030348 l     O .rodata	0000000000000030 secp384r1_T_28_X
0000000000030378 l     O .rodata	0000000000000030 secp384r1_T_28_Y
00000000000303a8 l     O .rodata	0000000000000030 secp384r1_T_29_X
00000000000303d8 l     O .rodata	0000000000000030 secp384r1_T_29_Y
0000000000030408 l     O .rodata	0000000000000030 secp384r1_T_30_X
0000000000030438 l     O .rodata	0000000000000030 secp384r1_T_30_Y
0000000000030468 l     O .rodata	0000000000000030 secp384r1_T_31_X
0000000000030498 l     O .rodata	0000000000000030 secp384r1_T_31_Y
0000000000200440 l     O .data	0000000000000900 secp384r1_T
0000000000028e14 l     F .text	0000000000000044 ecp_mpi_load
0000000000028e58 l     F .text	000000000000003c ecp_mpi_set1
0000000000028e94 l     F .text	0000000000000114 ecp_group_load
0000000000000000 l    df *ABS*	0000000000000000 hash_info.c
00000000000304c8 l     O .rodata	000000000000003c hash_table
0000000000000000 l    df *ABS*	0000000000000000 xlat_tables_utils.c
00000000000290c8 l     F .text	000000000000018c find_xlat_last_table
0000000000029254 l     F .text	0000000000000064 rmm_log
0000000000030670 l     O .rodata	0000000000000011 __func__.0
0000000000030688 l     O .rodata	0000000000000015 __func__.1
00000000000306a0 l     O .rodata	0000000000000015 __func__.2
00000000000306b8 l     O .rodata	0000000000000020 __func__.3
00000000000306d8 l     O .rodata	0000000000000017 __func__.4
0000000000000000 l    df *ABS*	0000000000000000 xlat_tables_arch.c
0000000000029640 l     F .text	000000000000000c read_id_aa64mmfr0_el0_tgran4
000000000002964c l     F .text	000000000000002c xlat_arch_is_granule_size_supported
0000000000029678 l     F .text	0000000000000088 tcr_physical_addr_size_bits
0000000000030750 l     O .rodata	0000000000000018 __func__.0
0000000000000000 l    df *ABS*	0000000000000000 xlat_contexts.c
000000000002990c l     F .text	0000000000000064 rmm_log
0000000000029970 l     F .text	00000000000002e8 validate_mmap_regions
0000000000029c58 l     F .text	00000000000000bc add_mmap_to_ctx_cfg
0000000000030840 l     O .rodata	0000000000000016 __func__.0
0000000000000000 l    df *ABS*	0000000000000000 xlat_high_va.c
0000000000200d40 l     O .data	0000000000001800 mm_regions_array.3
000000000225b000 l     O .bss	0000000000020000 high_va_tts.0
000000000225a780 l     O .bss	0000000000000800 high_va_tbls.1
000000000227b000 l     O .bss	0000000000000800 high_va_xlat_ctx
000000000227b800 l     O .bss	0000000000000800 high_va_xlat_ctx_cfgs.2
0000000000000000 l    df *ABS*	0000000000000000 enable_mmu.S.obj
0000000000000000 l    df *ABS*	0000000000000000 xlat_helper.S.obj
0000000000000000 l    df *ABS*	0000000000000000 xlat_tables_core.c
000000000002a124 l     F .text	0000000000000034 xlat_tables_find_start_va
000000000002a158 l     F .text	0000000000000064 rmm_log
000000000002a1bc l     F .text	0000000000000194 xlat_tables_map_region_action
000000000002a4a8 l     F .text	0000000000000328 xlat_tables_map_region
0000000000030b40 l     O .rodata	0000000000000015 __func__.0
0000000000030b58 l     O .rodata	000000000000001e __func__.1
0000000000030b78 l     O .rodata	0000000000000017 __func__.2
0000000000030b90 l     O .rodata	0000000000000015 __func__.3
0000000000030ba8 l     O .rodata	000000000000000a __func__.4
0000000000000000 l    df *ABS*	0000000000000000 memmove.c
0000000000000000 l    df *ABS*	0000000000000000 strlen.c
0000000000000000 l    df *ABS*	0000000000000000 arch_features.c
0000000000030c40 l     O .rodata	0000000000000017 __func__.0
0000000000000000 l    df *ABS*	0000000000000000 pmu.c
0000000000030d10 l     O .rodata	0000000000000014 __func__.0
0000000000030d28 l     O .rodata	0000000000000012 __func__.1
0000000000030d40 l     O .rodata	000000000000000f __func__.2
0000000000000000 l    df *ABS*	0000000000000000 pauth.c
000000000227c000 l     O .bss	0000000000000200 g_rmm_pauth_apia
0000000000000000 l    df *ABS*	0000000000000000 simd.c
000000000002b220 l     F .text	0000000000000014 save_simd_ns_el2_config
000000000002b234 l     F .text	0000000000000024 restore_simd_el2_config
000000000002b258 l     F .text	000000000000006c validate_simd_config
000000000002b2c4 l     F .text	0000000000000074 sme_init_once
000000000002b338 l     F .text	00000000000000c8 save_simd_context
000000000002b400 l     F .text	00000000000000bc restore_simd_context
000000000002b4bc l     F .text	000000000000005c sve_init_once
000000000227c200 l     O .bss	000000000000000c g_simd_cfg
000000000227c20c l     O .bss	0000000000000001 g_simd_init_done
000000000227c210 l     O .bss	0000000000000020 g_simd_state_saved
0000000000030ed8 l     O .rodata	000000000000000e __func__.0
0000000000030ee8 l     O .rodata	0000000000000014 __func__.1
0000000000030f00 l     O .rodata	0000000000000019 __func__.2
0000000000030f20 l     O .rodata	0000000000000014 __func__.3
0000000000000000 l    df *ABS*	0000000000000000 cache_helpers.S.obj
000000000002b9ec l       .text	0000000000000000 exit_loop_civac
000000000002b9d8 l       .text	0000000000000000 loop_civac
000000000002ba28 l       .text	0000000000000000 exit_loop_ivac
000000000002ba14 l       .text	0000000000000000 loop_ivac
0000000000000000 l    df *ABS*	0000000000000000 simd_helpers.S.obj
0000000000000000 l    df *ABS*	0000000000000000 smc.S.obj
0000000000000000 l    df *ABS*	0000000000000000 
0000000000030f38 l     O *ABS*	0000000000000000 _GLOBAL_OFFSET_TABLE_
0000000000010734 g     F .text	0000000000000030 putchar
00000000000124e8 g     F .text	0000000000000044 rmm_el3_ifc_get_shared_buf_pa
000000000000a5b8 g     F .text	000000000000001c handle_rsi_msk_call
0000000000013168 g     F .text	0000000000000028 t_cose_link_rs
000000000001a3f4 g     F .text	0000000000000378 mbedtls_psa_hash_finish
0000000000010450 g     F .text	0000000000000020 table_maps_assigned_ns_block
00000000000235c0 g     F .text	0000000000000108 mbedtls_mpi_core_fill_random
0000000000029f48 g     F .text	000000000000001c xlat_get_high_va_xlat_ctx
000000000001dfac g     F .text	00000000000000dc mbedtls_mpi_grow
000000000001d00c g     F .text	00000000000009f0 mbedtls_internal_sha512_process
0000000000015c24 g     F .text	00000000000000cc mbedtls_md_starts
0000000000002a38 g     F .text	0000000000000014 inject_serror
00000000002003f8 g     O .data	0000000000000010 mbedtls_sha256_info
0000000000024dc0 g     F .text	0000000000000038 mbedtls_ecp_point_init
0000000000017e50 g     F .text	00000000000000cc psa_export_public_key_internal
00000000000107c8 g     F .text	00000000000002ac plat_cmn_setup
0000000000022014 g     F .text	00000000000001f8 mbedtls_mpi_core_shift_r
0000000000014c3c g     F .text	00000000000000e8 measurement_extend
000000000000b490 g     F .text	00000000000003a0 realm_ipa_to_pa
0000000000010490 g     F .text	0000000000000098 skip_non_live_entries
0000000000014df8 g     F .text	00000000000000a0 measurement_realm_params_measure
0000000000000234 g     F .text	000000000000000c ns_access_ret_0
0000000000014d24 g     F .text	00000000000000d4 measurement_data_granule_measure
0000000000018608 g     F .text	0000000000000098 psa_hash_setup
000000000000df70 g     F .text	0000000000000050 plat_granule_addr_to_idx
00000000000092fc g     F .text	0000000000000370 smc_rtt_set_ripas
00000000000292c0 g     F .text	0000000000000008 xlat_tables_print
0000000000018b08 g     F .text	00000000000001bc psa_sign_hash_start
000000000001b0a0 g     F .text	0000000000001848 mbedtls_internal_sha256_process
00000000000196a8 g     F .text	0000000000000088 psa_driver_wrapper_sign_hash_start
000000000001a064 g     F .text	00000000000000ec mbedtls_psa_hash_abort
0000000000001658 g     F .text	000000000000005c emulate_stage2_data_abort
000000000000f9cc g     F .text	000000000000000c s2tte_create_unassigned_destroyed
000000000233d000 g       .stack	0000000000000000 rmm_end
0000000000000138 g     F .text	00000000000000ac fixup_gdt_reloc
0000000000021ebc g     F .text	0000000000000158 mbedtls_mpi_core_write_be
0000000000019650 g     F .text	000000000000000c psa_driver_wrapper_free
000000000001e6d4 g     F .text	0000000000000040 mbedtls_mpi_write_binary
0000000000019634 g     F .text	000000000000001c psa_driver_wrapper_init
000000000002503c g     F .text	0000000000000048 mbedtls_ecp_keypair_free
0000000000200000 g       .data	0000000000000000 rmm_rw_start
0000000000029414 g     F .text	00000000000000e0 xlat_get_tte_ptr
0000000000010618 g     F .text	0000000000000030 report_timer_state_to_ns
00000000002033b0 g       .rela.dyn	0000000000000000 rmm_rela_end
000000000001f43c g     F .text	0000000000000068 mbedtls_mpi_sub_int
0000000000018dbc g     F .text	0000000000000034 mbedtls_psa_interruptible_set_max_ops
000000000000f0a0 g     F .text	0000000000000018 s2tte_is_assigned_destroyed
000000000000dc64 g     F .text	000000000000004c vprintf_
000000000002a944 g     F .text	0000000000000044 memmove
0000000000010130 g     F .text	00000000000000c8 s2tte_create_assigned_unchanged
0000000000024b9c g     F .text	0000000000000060 mbedtls_ecp_restart_free
000000000001aedc g     F .text	0000000000000028 mbedtls_sha256_init
0000000000010ee8 g     F .text	0000000000000338 attest_realm_token_create
000000000000020c g     F .text	0000000000000028 memcpy_ns_write
0000000000025084 g     F .text	00000000000000a4 mbedtls_ecp_copy
0000000000015284 g     F .text	00000000000000f0 mbedtls_hmac_drbg_seed_buf
000000000001e088 g     F .text	0000000000000160 mbedtls_mpi_shrink
0000000000029f64 g     F .text	0000000000000108 xlat_high_va_setup
000000000002b754 g     F .text	000000000000011c simd_context_init
00000000000001e4 g     F .text	0000000000000028 memcpy_ns_read
000000000000f9d8 g     F .text	000000000000000c s2tte_create_unassigned_ns
000000000000ed24 g     F .text	0000000000000074 granule_memzero
0000000000030f38 g       .rodata	0000000000000000 rmm_got_start
00000000000198e8 g     F .text	0000000000000068 psa_driver_wrapper_hash_compute
0000000000012fc0 g     F .text	0000000000000080 hash_alg_id_from_sig_alg_id
000000000000c310 g     F .text	000000000000015c handle_rsi_attest_token_continue
00000000000121c4 g     F .text	0000000000000078 buffer_alloc_ctx_unassign
000000000000fa44 g     F .text	0000000000000060 host_ns_s2tte_is_valid
00000000000033b4 g     F .text	000000000000009c get_feature_register_0
0000000000010a74 g     F .text	0000000000000074 plat_cmn_warmboot_setup
000000000002240c g     F .text	0000000000000fc8 mbedtls_mpi_core_mla
00000000000112a8 g     F .text	0000000000000050 attestation_heap_ctx_init
000000000001cb14 g     F .text	00000000000002b4 mbedtls_sha256_finish
0000000000002354 g     F .text	0000000000000018 rmm_warmboot_main
0000000000012154 g     F .text	0000000000000070 buffer_alloc_ctx_assign
0000000000019f74 g     F .text	00000000000000f0 mbedtls_psa_ecp_export_public_key
000000000001ab74 g     F .text	0000000000000080 psa_wipe_all_key_slots
000000000001e96c g     F .text	000000000000004c mbedtls_mpi_shift_r
000000000000e0b4 g     F .text	0000000000000024 get_cached_llt_info
000000000000e330 g     F .text	0000000000000044 buffer_unmap_internal
00000000000103a0 g     F .text	000000000000001c table_is_unassigned_empty_block
000000000001e4d4 g     F .text	0000000000000064 mbedtls_mpi_get_bit
00000000000236c8 g     F .text	0000000000000130 mbedtls_mpi_core_random
000000000001e630 g     F .text	00000000000000a4 mbedtls_mpi_read_binary
0000000000202558 g       .rela.dyn	0000000000000000 rmm_rela_start
0000000000017c44 g     F .text	0000000000000060 psa_remove_key_data_from_memory
000000000000e4ec g     F .text	0000000000000164 ns_buffer_write
0000000000013f48 g     F .text	00000000000000dc UsefulOutBuf_InsertUsefulBuf
0000000000013e7c g     F .text	0000000000000040 QCBOREncode_CloseBytes
000000000000fb48 g     F .text	0000000000000030 s2tte_is_table
0000000000019428 g     F .text	0000000000000108 psa_crypto_init
00000000000128e4 g     F .text	00000000000000e8 rmm_el3_ifc_get_realm_attest_key
000000000000cb5c g     F .text	0000000000000028 memcpy
0000000000011644 g     F .text	0000000000000050 attest_get_realm_public_key
0000000000018df0 g     F .text	000000000000001c mbedtls_psa_sign_hash_get_num_ops
000000000002a06c g     F .text	0000000000000060 xlat_enable_mmu_el2
0000000000015598 g     F .text	000000000000024c mbedtls_hmac_drbg_random_with_add
000000000001a76c g     F .text	00000000000000f0 mbedtls_psa_hash_compute
0000000000003450 g     F .text	000000000000002c smc_read_feature_register
000000000001234c g     F .text	0000000000000030 rmm_el3_ifc_report_fail_to_el3
000000000000f490 g     F .text	0000000000000018 invalidate_pages_in_block
000000000000e768 g     F .text	0000000000000084 granule_addr
000000000002c000 g       .text	0000000000000000 rmm_text_end
000000000000f460 g     F .text	0000000000000018 invalidate_page
0000000000012bcc g     F .text	0000000000000118 t_cose_sign_encode_finish
0000000000029720 g     F .text	00000000000001ac xlat_arch_setup_mmu_cfg
000000000000aa94 g     F .text	0000000000000070 handle_rsi_ipa_state_get
00000000000185c4 g     F .text	0000000000000044 psa_hash_abort
000000000000fcbc g     F .text	0000000000000040 s2tt_init_unassigned_ns
0000000000013f18 g     F .text	0000000000000030 UsefulOutBuf_Init
0000000000011744 g     F .text	0000000000000084 attest_get_platform_token
0000000000029570 g     F .text	00000000000000d0 xlat_map_memory_page_with_attrs
000000000000f4a8 g     F .text	000000000000050c rtt_walk_lock_unlock
0000000000030f88 g       .rodata	0000000000000000 rmm_got_end
000000000002bcf4 g     F .text	000000000000000c monitor_call
000000000231d000 g       .stack	0000000000000000 rmm_stack_end
0000000000000000 g       .text	0000000000000000 rmm_base
000000000000cb2c g     F .text	0000000000000030 __assert_func
000000000231d000 g       .stack	0000000000000000 rmm_eh_stack_start
000000000000df60 g     F .text	0000000000000010 qemu_get_dram_layout
0000000000000800 g       .text	0000000000000000 el2_vectors
000000000001456c g     F .text	0000000000000028 gic_cpu_state_init
000000000002babc g     F .text	000000000000000c sve_rdvl
000000000002389c g     F .text	0000000000000028 mbedtls_ct_mpi_uint_mask
0000000000028ce8 g     F .text	00000000000000d0 mbedtls_ecp_read_key
0000000000024f5c g     F .text	00000000000000e0 mbedtls_ecp_group_free
0000000000001adc g     F .text	00000000000000d0 handle_realm_exit
0000000000038000 g       xlat_table	0000000000000000 rmm_ro_end
000000000002b0d0 g     F .text	000000000000002c pauth_restore_rmm_keys
0000000000011600 g     F .text	0000000000000044 attest_get_realm_signing_key
00000000000103bc g     F .text	000000000000001c table_is_unassigned_ram_block
000000000002c000 g       .rodata	0000000000000000 rmm_ro_start
0000000000019878 g     F .text	0000000000000070 psa_driver_wrapper_export_public_key
0000000000002624 g     F .text	000000000000004c realm_inject_undef_abort
000000000000ffc0 g     F .text	0000000000000070 s2tt_init_assigned_empty
0000000000008f14 g     F .text	00000000000003e8 smc_rtt_init_ripas
000000000000ff54 g     F .text	000000000000006c s2tte_create_assigned_empty
000000000001af38 g     F .text	0000000000000168 mbedtls_sha256_starts
000000000233d000 g       .stack	0000000000000000 rmm_eh_stack_end
000000000001c95c g     F .text	00000000000001b8 mbedtls_sha256_update
000000000000f9e4 g     F .text	0000000000000060 s2tte_create_assigned_ns
000000000001e5dc g     F .text	0000000000000030 mbedtls_mpi_bitlen
00000000000248cc g     F .text	0000000000000030 mbedtls_ecdsa_free
000000000002b8f0 g     F .text	000000000000006c simd_get_cpu_config
0000000000200418 g     O .data	0000000000000010 mbedtls_sha512_info
000000000000faa4 g     F .text	0000000000000028 host_ns_s2tte
000000000001cdf0 g     F .text	0000000000000034 mbedtls_sha512_free
00000000000238c4 g     F .text	0000000000000050 mbedtls_ct_size_bool_eq
000000000001f4a4 g     F .text	0000000000000294 mbedtls_mpi_mul_mpi
000000000000f478 g     F .text	0000000000000018 invalidate_block
0000000000025128 g     F .text	0000000000000088 mbedtls_ecp_set_zero
000000000001637c g     F .text	0000000000000030 mbedtls_put_unaligned_uint64
0000000000023f44 g     F .text	0000000000000668 mbedtls_ecdsa_sign_restartable
000000000000c704 g     F .text	000000000000038c handle_rsi_measurement_read
00000000000085d8 g     F .text	0000000000000080 smc_rtt_map_unprotected
000000000001defc g     F .text	0000000000000034 mbedtls_mpi_init
000000000001e538 g     F .text	00000000000000a4 mbedtls_mpi_lsb
000000000002a0cc g     F .text	000000000000002c rmm_get_my_eh_stack
000000000002a0f8 g     F .text	000000000000002c rmm_get_my_stack
0000000000015568 g     F .text	0000000000000030 mbedtls_hmac_drbg_reseed
0000000000012038 g     F .text	0000000000000090 buffer_alloc_calloc
0000000000010030 g     F .text	0000000000000090 s2tte_create_assigned_ram
00000000000032ec g     F .text	0000000000000058 vmid_reserve
0000000000008ab8 g     F .text	000000000000001c smc_data_create_unknown
000000000002b0fc g     F .text	0000000000000078 pauth_init_enable_el2
000000000000ddc0 g     F .text	0000000000000130 plat_setup
00000000000163ac g     F .text	00000000000000e8 mbedtls_xor
000000000001923c g     F .text	000000000000005c mbedtls_psa_sign_hash_abort
000000000001f374 g     F .text	0000000000000030 mbedtls_mpi_add_mpi
0000000002259ff0 g     O .bss	0000000000000008 rmm_shared_buffer_start_va
0000000000021478 g     F .text	00000000000000b0 mbedtls_mpi_random
0000000000014c28 g     F .text	0000000000000014 measurement_hash_compute
0000000000019530 g     F .text	0000000000000034 psa_reset_key_attributes
000000000000e1d0 g     F .text	0000000000000044 check_cpu_slots_empty
0000000000016fa0 g     F .text	000000000000011c psa_import_key_into_slot
0000000000018784 g     F .text	0000000000000068 psa_hash_compute
0000000000029e64 g     F .text	00000000000000e4 xlat_ctx_init
000000000000021c g       .text	0000000000000000 ns_write
0000000000014024 g     F .text	0000000000000064 UsefulOutBuf_Advance
0000000000016f30 g     F .text	0000000000000070 psa_allocate_buffer_to_slot
0000000000018720 g     F .text	0000000000000064 psa_hash_finish
000000000001143c g     F .text	00000000000001c4 attest_init_realm_attestation_key
00000000000045f4 g     F .text	00000000000001f8 smc_realm_activate
000000000001f3a4 g     F .text	0000000000000030 mbedtls_mpi_sub_mpi
0000000000018aa8 g     F .text	0000000000000014 psa_interruptible_get_max_ops
0000000000018a80 g     F .text	0000000000000028 psa_interruptible_set_max_ops
000000000000dfc0 g     F .text	0000000000000050 plat_granule_idx_to_addr
0000000000019300 g     F .text	0000000000000090 psa_generate_random
000000000000e138 g     F .text	0000000000000098 slot_buf_finish_warmboot_init
0000000000011374 g     F .text	0000000000000018 attestation_heap_reinit_pe
000000000002b518 g     F .text	0000000000000018 simd_is_state_saved
00000000000253d8 g     F .text	00000000000001d4 mbedtls_ecp_point_read_binary
0000000000028c98 g     F .text	0000000000000050 mbedtls_ecp_gen_privkey
000000000002b9b4 g     F .text	000000000000003c flush_dcache_range
0000000000013390 g     F .text	0000000000000110 t_cose_crypto_sig_size
00000000000248fc g     F .text	0000000000000038 mbedtls_ecdsa_restart_init
00000000000162fc g     F .text	0000000000000028 mbedtls_get_unaligned_uint32
0000000000002554 g     F .text	0000000000000070 inject_sync_idabort
000000000001e434 g     F .text	00000000000000a0 mbedtls_mpi_lset
00000000000292c8 g     F .text	000000000000014c xlat_get_llt_from_va
000000000000a86c g     F .text	0000000000000134 rsi_log_on_exit
00000000000249ec g     F .text	0000000000000020 mbedtls_ecp_restart_is_enabled
0000000000012f4c g     F .text	000000000000003c qcbor_encode_error_to_t_cose_error
0000000000014774 g     F .text	0000000000000030 gic_restore_state
0000000000012aec g     F .text	00000000000000e0 t_cose_sign_encode_start
00000000000112f8 g     F .text	000000000000004c attestation_heap_ctx_assign_pe
00000000000237f8 g     F .text	00000000000000a4 mbedtls_mpi_core_sub_int
0000000000013c40 g     F .text	0000000000000020 QCBOREncode_AddTag
0000000000016de8 g     F .text	00000000000000a4 psa_validate_unstructured_key_bit_size
00000000000100c0 g     F .text	0000000000000070 s2tt_init_assigned_ram
0000000000005608 g     F .text	000000000000050c smc_rec_create
0000000000012f88 g     F .text	0000000000000038 t_cose_int16_map
0000000000028db8 g     F .text	000000000000005c mbedtls_ecp_write_key
000000000000fcfc g     F .text	0000000000000040 s2tt_init_unassigned_destroyed
000000000002a9a8 g     F .text	0000000000000070 arch_feat_get_pa_width
000000000001252c g     F .text	0000000000000044 rmm_el3_ifc_get_version
000000000000e388 g     F .text	0000000000000164 ns_buffer_read
0000000000010528 g     F .text	00000000000000f0 check_pending_timers
0000000000016d6c g     F .text	000000000000007c mbedtls_ecc_group_of_psa
00000000000145f4 g     F .text	0000000000000060 gic_copy_state_to_rec_exit
000000000001186c g     F .text	0000000000000078 mbedtls_psa_external_get_random
000000000000b1d4 g     F .text	0000000000000144 handle_psci
000000000001f738 g     F .text	000000000000011c mbedtls_mpi_mul_int
0000000000016324 g     F .text	0000000000000030 mbedtls_put_unaligned_uint32
0000000000012ab4 g     F .text	0000000000000038 rmm_el3_ifc_validate_cpuid
0000000000013820 g     F .text	000000000000007c t_cose_headers_encode
0000000000011220 g     F .text	0000000000000088 attestation_init
00000000000205ec g     F .text	0000000000000c30 mbedtls_mpi_exp_mod
0000000000023a9c g     F .text	0000000000000118 mbedtls_mpi_safe_cond_assign
000000000000bfcc g     F .text	0000000000000344 handle_rsi_attest_token_init
0000000000008140 g     F .text	0000000000000498 smc_rtt_destroy
000000000000fd3c g     F .text	0000000000000050 s2tte_map_size
0000000000016494 g     F .text	0000000000000044 mbedtls_platform_zeroize
000000000001e9b8 g     F .text	00000000000001bc mbedtls_mpi_cmp_abs
0000000000010678 g     F .text	00000000000000bc uart_init
0000000000014594 g     F .text	0000000000000060 gic_copy_state_from_rec_entry
0000000000024d78 g     F .text	0000000000000048 mbedtls_ecp_get_type
000000000001267c g     F .text	0000000000000044 rmm_el3_ifc_get_manifest_version
000000000000ee80 g     F .text	000000000000008c aux_granules_unmap
000000000000a9a0 g     F .text	00000000000000f4 handle_rsi_ipa_state_set
000000000000ecb0 g     F .text	0000000000000074 find_lock_two_granules
000000000002bac8 g     F .text	00000000000000f0 sve_save_vector_registers
000000000000f034 g     F .text	0000000000000018 s2tte_is_unassigned_ram
000000000000f088 g     F .text	0000000000000018 s2tte_is_unassigned_destroyed
0000000000008a38 g     F .text	0000000000000080 smc_data_create
0000000000005fbc g     F .text	0000000000000450 smc_psci_complete
0000000000024ed4 g     F .text	0000000000000048 mbedtls_ecp_point_free
000000000001da70 g     F .text	00000000000001a8 mbedtls_sha512_update
0000000000000000 g       .text	0000000000000000 rmm_text_start
00000000000103f4 g     F .text	000000000000001c table_is_unassigned_destroyed_block
0000000000016588 g     F .text	0000000000000770 mbedtls_to_psa_error
0000000000021de0 g     F .text	00000000000000dc mbedtls_mpi_core_read_be
000000000001ed98 g     F .text	0000000000000060 mbedtls_mpi_cmp_int
000000000000a16c g     F .text	0000000000000018 handle_rsi_features
0000000000028b7c g     F .text	000000000000005c mbedtls_ecp_check_pubkey
00000000000249c4 g     F .text	0000000000000028 mbedtls_ecp_set_max_ops
00000000000298f0 g     F .text	000000000000001c xlat_arch_get_pas
000000000002ad3c g     F .text	0000000000000330 pmu_restore_state
000000000227d000 g       .stack	0000000000000000 rmm_stack_start
0000000000019800 g     F .text	0000000000000078 psa_driver_wrapper_import_key
0000000000019730 g     F .text	0000000000000050 psa_driver_wrapper_sign_hash_complete
0000000000014654 g     F .text	0000000000000120 gic_validate_state
000000000001223c g     F .text	0000000000000110 mbedtls_memory_buffer_alloc_init
000000000227c230 g       .bss	0000000000000000 bss_end
0000000000019564 g     F .text	00000000000000b8 psa_set_key_domain_parameters
0000000000014fa4 g     F .text	00000000000000b0 measurement_init_ripas_measure
000000000000f140 g     F .text	0000000000000018 s2tte_is_assigned_ns
000000000001a968 g     F .text	0000000000000078 psa_is_valid_key_id
000000000000fc3c g     F .text	0000000000000040 s2tt_init_unassigned_empty
000000000001e278 g     F .text	0000000000000190 mbedtls_mpi_copy
0000000000021b18 g     F .text	0000000000000068 mbedtls_mpi_core_clz
000000000000fe54 g     F .text	0000000000000020 addr_is_level_aligned
0000000000012894 g     F .text	000000000000003c rmm_el3_ifc_get_shared_buf_locked
000000000001adac g     F .text	0000000000000074 psa_get_and_lock_key_slot
00000000000002b4 g     F .text	0000000000000088 realm_exit
000000000001389c g     F .text	0000000000000048 QCBOREncode_Init
000000000002b9f0 g     F .text	000000000000003c inv_dcache_range
0000000000002a4c g     F .text	0000000000000078 init_all_cpus_ns_simd_context
000000000000e86c g     F .text	0000000000000208 find_lock_granule
00000000000193d4 g     F .text	0000000000000054 mbedtls_psa_crypto_free
000000000000371c g     F .text	00000000000000b0 smc_granule_undelegate
000000000002906c g     F .text	000000000000005c mbedtls_hash_info_md_from_psa
00000000000197b8 g     F .text	0000000000000048 psa_driver_wrapper_get_key_buffer_size_from_key_data
00000000002033b0 g       .bss	0000000000000000 bss_start
000000000002bbb8 g     F .text	00000000000000f0 sve_restore_vector_registers
000000000001a150 g     F .text	0000000000000194 mbedtls_psa_hash_setup
00000000000103d8 g     F .text	000000000000001c table_is_unassigned_ns_block
000000000000fb30 g     F .text	0000000000000018 s2tte_is_unassigned
00000000000160c4 g     F .text	0000000000000060 mbedtls_md_hmac_update
000000000001e714 g     F .text	0000000000000258 mbedtls_mpi_shift_l
000000000002b06c g     F .text	0000000000000064 pmu_update_rec_exit
000000000001eb74 g     F .text	0000000000000224 mbedtls_mpi_cmp_mpi
00000000000134a0 g     F .text	0000000000000084 t_cose_crypto_hash_start
0000000000008ad4 g     F .text	0000000000000440 smc_data_destroy
0000000000028fa8 g     F .text	00000000000000c4 mbedtls_ecp_group_load
000000000002a350 g     F .text	0000000000000158 xlat_desc
00000000000251e0 g     F .text	00000000000001f8 mbedtls_ecp_point_write_binary
0000000000018cc4 g     F .text	00000000000000f8 psa_sign_hash_complete
0000000000013cf8 g     F .text	000000000000003c QCBOREncode_CloseMapOrArray
000000000001edf8 g     F .text	0000000000000214 mbedtls_mpi_add_abs
00000000000245c4 g     F .text	0000000000000308 mbedtls_ecdsa_sign_det_restartable
0000000000019950 g     F .text	0000000000000064 psa_driver_wrapper_hash_setup
000000000000f9b4 g     F .text	000000000000000c s2tte_create_unassigned_empty
000000000002b870 g     F .text	0000000000000080 simd_update_smc_sve_hint
0000000000017cf0 g     F .text	00000000000000dc psa_get_key_attributes
000000000002034c g     F .text	00000000000000f0 mbedtls_mpi_mod_mpi
0000000000023bb4 g     F .text	0000000000000118 mbedtls_mpi_core_lt_ct
00000000000031c4 g     F .text	0000000000000128 handle_sysreg_access_trap
000000000000b830 g     F .text	000000000000037c realm_ipa_get_ripas
000000000000e82c g     F .text	0000000000000040 find_granule
0000000000018e0c g     F .text	0000000000000218 mbedtls_psa_sign_hash_start
0000000000015a34 g     F .text	00000000000001f0 mbedtls_md_setup
000000000002b1cc g     F .text	0000000000000054 pauth_save_realm_keys
0000000000022310 g     F .text	00000000000000fc mbedtls_mpi_core_sub
000000000000fe74 g     F .text	0000000000000070 s2tte_create_assigned_destroyed
0000000000015830 g     F .text	0000000000000048 mbedtls_hmac_drbg_free
0000000000019390 g     F .text	0000000000000044 mbedtls_psa_get_random
0000000000013c60 g     F .text	0000000000000098 QCBOREncode_OpenMapOrArray
000000000002121c g     F .text	000000000000025c mbedtls_mpi_gcd
0000000000004bb0 g     F .text	00000000000002f4 smc_realm_destroy
0000000000015dd4 g     F .text	00000000000000d0 mbedtls_md_finish
00000000000289e4 g     F .text	0000000000000048 mbedtls_ecp_mul
000000000000e074 g     F .text	0000000000000040 slot_to_va
0000000000015088 g     F .text	00000000000001fc mbedtls_hmac_drbg_update
0000000000001f10 g     F .text	0000000000000348 handle_ns_smc
0000000000002ac4 g     F .text	0000000000000020 get_cpu_ns_simd_context
000000000000fe08 g     F .text	000000000000004c s2tte_pa_table
000000000000dcb0 g     F .text	0000000000000090 memset
000000000000ed98 g     F .text	000000000000001c granule_memzero_mapped
000000000001ae20 g     F .text	0000000000000058 psa_unlock_key_slot
000000000002ba2c g     F .text	0000000000000048 fpu_save_registers
0000000000016354 g     F .text	0000000000000028 mbedtls_get_unaligned_uint64
0000000000021c4c g     F .text	00000000000000ac mbedtls_mpi_core_bigendian_to_host
0000000000010430 g     F .text	0000000000000020 table_maps_assigned_ram_block
000000000000366c g     F .text	00000000000000b0 smc_granule_delegate
0000000000019a4c g     F .text	0000000000000038 psa_driver_wrapper_hash_abort
000000000001af04 g     F .text	0000000000000034 mbedtls_sha256_free
0000000000017f1c g     F .text	0000000000000118 psa_export_public_key
000000000000b318 g     F .text	0000000000000178 psci_complete_request
000000000000fb78 g     F .text	0000000000000038 s2tte_has_ripas
0000000000002258 g     F .text	000000000000006c handle_rmm_trap
0000000000024e9c g     F .text	0000000000000038 mbedtls_ecp_keypair_init
00000000000129cc g     F .text	00000000000000e8 rmm_el3_ifc_get_platform_token
0000000000029700 g     F .text	0000000000000020 xlat_arch_get_max_supported_pa
0000000000016124 g     F .text	000000000000013c mbedtls_md_hmac_finish
00000000000138e4 g     F .text	00000000000000f4 QCBOREncode_EncodeHead
00000000000001f0 g       .text	0000000000000000 ns_read
000000000001a2e4 g     F .text	0000000000000110 mbedtls_psa_hash_update
0000000000014e98 g     F .text	000000000000010c measurement_rec_params_measure
0000000000013040 g     F .text	0000000000000128 create_tbs_hash
0000000000000100 g     F .text	0000000000000030 rmm_handler
0000000000019024 g     F .text	0000000000000218 mbedtls_psa_sign_hash_complete
0000000000023914 g     F .text	000000000000006c mbedtls_ct_mpi_uint_lt
0000000000010470 g     F .text	0000000000000020 table_maps_assigned_destroyed_block
0000000000005dc8 g     F .text	00000000000001f4 smc_rec_aux_count
0000000000008658 g     F .text	000000000000003c smc_rtt_unmap_unprotected
000000000000236c g     F .text	00000000000000d4 rmm_main
000000000000e294 g     F .text	0000000000000050 granule_map
000000000000e7ec g     F .text	0000000000000040 addr_to_granule
00000000000128d0 g     F .text	0000000000000014 rmm_el3_ifc_release_shared_buf
0000000000013558 g     F .text	000000000000005c t_cose_crypto_hash_finish
0000000000011694 g     F .text	00000000000000b0 attest_setup_platform_token
0000000000002ae4 g     F .text	00000000000002b4 rec_run_loop
000000000001237c g     F .text	000000000000016c rmm_el3_ifc_init
000000000002a7d0 g     F .text	0000000000000174 xlat_init_tables_ctx
000000000000facc g     F .text	0000000000000064 s2tte_create_table
000000000001dc18 g     F .text	00000000000002b4 mbedtls_sha512_finish
0000000000024b64 g     F .text	0000000000000038 mbedtls_ecp_restart_init
0000000000007a24 g     F .text	000000000000071c smc_rtt_fold
000000000002bca8 g     F .text	000000000000004c sve_clear_p_ffr_registers
0000000000008694 g     F .text	00000000000003a4 smc_rtt_read_entry
000000000001f3d4 g     F .text	0000000000000068 mbedtls_mpi_add_int
000000000000a4c8 g     F .text	000000000000007c handle_rsi_host_call
000000000001965c g     F .text	000000000000004c psa_driver_wrapper_sign_hash_get_num_ops
0000000000012e90 g     F .text	000000000000005c t_cose_signature_sign_restart_init
00000000002003e8 g     O .data	0000000000000010 mbedtls_sha224_info
0000000000013b90 g     F .text	00000000000000b0 QCBOREncode_AddBuffer
000000000000dbf4 g     F .text	0000000000000070 snprintf_
00000000000120c8 g     F .text	000000000000008c buffer_alloc_free
0000000000011344 g     F .text	0000000000000030 attestation_heap_ctx_unassign_pe
00000000000251b0 g     F .text	0000000000000030 mbedtls_ecp_is_zero
000000000002b530 g     F .text	0000000000000224 simd_context_switch
0000000000005b14 g     F .text	00000000000002b4 smc_rec_destroy
00000000000298e0 g     F .text	0000000000000010 xlat_arch_tlbi_va_sync
000000000000f9c0 g     F .text	000000000000000c s2tte_create_unassigned_ram
000000000000e374 g     F .text	0000000000000014 buffer_unmap
0000000000021b80 g     F .text	00000000000000b0 mbedtls_mpi_core_bitlen
000000000002b95c g     F .text	0000000000000058 simd_init
00000000000125d4 g     F .text	00000000000000a8 rmm_el3_ifc_process_boot_manifest
00000000000132ac g     F .text	00000000000000e4 t_cose_crypto_sign_restart
0000000000013524 g     F .text	0000000000000034 t_cose_crypto_hash_update
0000000000021528 g     F .text	00000000000005f0 mbedtls_mpi_inv_mod
0000000000024934 g     F .text	0000000000000090 mbedtls_ecdsa_restart_free
000000000001fb28 g     F .text	0000000000000824 mbedtls_mpi_div_mpi
000000000001e60c g     F .text	0000000000000024 mbedtls_mpi_size
000000000000a544 g     F .text	0000000000000074 complete_rsi_host_call
0000000000021cf8 g     F .text	000000000000009c mbedtls_mpi_core_uint_le_mpi
0000000000017ca4 g     F .text	000000000000004c psa_wipe_key_slot
000000000000ca90 g     F .text	0000000000000038 handle_rsi_version
00000000000186a0 g     F .text	0000000000000080 psa_hash_update
00000000000147a4 g     F .text	0000000000000040 gic_save_state
0000000000013ebc g     F .text	000000000000005c QCBOREncode_Finish
000000000227d000 g       .stack	0000000000000000 rmm_rw_end
00000000000239ec g     F .text	00000000000000b0 mbedtls_ct_mpi_uint_cond_assign
00000000000117c8 g     F .text	000000000000000c attest_get_realm_public_key_hash_algo_id
0000000000009eec g     F .text	0000000000000280 handle_rsi_realm_config
000000000000fd8c g     F .text	000000000000007c s2tte_pa
000000000002220c g     F .text	0000000000000104 mbedtls_mpi_core_add
0000000000010ce0 g     F .text	00000000000000d0 attest_realm_token_sign
000000000000def0 g     F .text	0000000000000070 qemu_set_dram_layout
0000000000000240 g     F .text	0000000000000074 run_realm
000000000000fbb0 g     F .text	000000000000008c s2tte_get_ripas
0000000000024bfc g     F .text	00000000000000ec mbedtls_ecp_check_budget
0000000000024df8 g     F .text	00000000000000a4 mbedtls_ecp_group_init
00000000000101f8 g     F .text	00000000000000b0 s2tt_init_assigned_ns
000000000001ab54 g     F .text	0000000000000020 psa_initialize_key_slots
0000000000016260 g     F .text	000000000000009c mbedtls_md_hmac_reset
000000000001cdc8 g     F .text	0000000000000028 mbedtls_sha512_init
000000000000dda4 g     F .text	000000000000001c plat_warmboot_setup
000000000001abf4 g     F .text	00000000000001b8 psa_get_empty_key_slot
000000000001ce24 g     F .text	00000000000001e8 mbedtls_sha512_starts
000000000000f128 g     F .text	0000000000000018 s2tte_is_assigned_ram
0000000000015cf0 g     F .text	00000000000000e4 mbedtls_md_update
000000000001ae78 g     F .text	0000000000000034 psa_validate_key_location
0000000000015ea4 g     F .text	0000000000000030 mbedtls_md_get_size
000000000000fee4 g     F .text	0000000000000070 s2tt_init_assigned_destroyed
000000000000c46c g     F .text	0000000000000298 handle_rsi_measurement_extend
00000000000294f4 g     F .text	000000000000007c xlat_unmap_memory_page
0000000000014088 g     F .text	000000000000005c UsefulOutBuf_OutUBuf
000000000001df30 g     F .text	000000000000007c mbedtls_mpi_free
000000000002ba74 g     F .text	0000000000000048 fpu_restore_registers
00000000000126c0 g     F .text	0000000000000170 rmm_el3_ifc_get_dram_data_validated_pa
00000000000118e4 g     F .text	0000000000000134 attest_rnd_prng_init
00000000000157e4 g     F .text	000000000000004c mbedtls_hmac_drbg_random
0000000000028984 g     F .text	0000000000000060 mbedtls_ecp_mul_restartable
0000000000013d34 g     F .text	00000000000000cc QCBOREncode_CloseBstrWrap2
0000000000023464 g     F .text	000000000000015c mbedtls_mpi_core_montmul
0000000000009adc g     F .text	00000000000003e4 smc_rec_enter
0000000000010db0 g     F .text	0000000000000138 attest_cca_token_create
0000000000019a84 g     F .text	0000000000000270 mbedtls_psa_ecp_load_representation
0000000000019cf4 g     F .text	0000000000000110 mbedtls_psa_ecp_import_key
0000000000015054 g     F .text	0000000000000034 mbedtls_hmac_drbg_init
00000000000199b4 g     F .text	0000000000000048 psa_driver_wrapper_hash_update
000000000001aeac g     F .text	0000000000000030 psa_validate_key_persistence
0000000000029d14 g     F .text	0000000000000150 xlat_ctx_cfg_init
000000000002a988 g     F .text	0000000000000020 strlen
000000000001448c g     F .text	00000000000000e0 gic_get_virt_features
0000000000015ed4 g     F .text	00000000000001f0 mbedtls_md_hmac_starts
000000000000f0b8 g     F .text	0000000000000018 s2tte_is_assigned_empty
000000000000edb4 g     F .text	00000000000000cc aux_granules_map
00000000000025c4 g     F .text	0000000000000060 inject_sync_idabort_rec
000000000002b174 g     F .text	0000000000000058 pauth_restore_realm_keys
00000000000298cc g     F .text	0000000000000014 xlat_arch_tlbi_va
0000000000019e04 g     F .text	0000000000000170 mbedtls_psa_ecp_export_key
0000000000013a30 g     F .text	000000000000005c CheckDecreaseNesting
000000000000e214 g     F .text	0000000000000080 buffer_map_internal
000000000000f04c g     F .text	000000000000003c s2tte_is_unassigned_ns
0000000000018398 g     F .text	000000000000022c psa_import_key
0000000000000000 g     F .text	0000000000000100 rmm_entry
00000000000292b8 g     F .text	0000000000000008 xlat_mmap_print
0000000000013e00 g     F .text	000000000000007c QCBOREncode_OpenBytes
000000000001f00c g     F .text	000000000000023c mbedtls_mpi_sub_abs
0000000000010410 g     F .text	0000000000000020 table_maps_assigned_empty_block
000000000002aa18 g     F .text	0000000000000324 pmu_save_state
0000000000019780 g     F .text	0000000000000038 psa_driver_wrapper_sign_hash_abort
00000000000199fc g     F .text	0000000000000050 psa_driver_wrapper_hash_finish
0000000000009ec0 g     F .text	000000000000002c smc_version
0000000000015878 g     F .text	0000000000000094 mbedtls_md_info_from_type
000000000002bd00 g     F .text	000000000000001c monitor_call_with_res
000000000001590c g     F .text	0000000000000128 mbedtls_md_free
0000000000013b24 g     F .text	000000000000006c QCBOREncode_AddInt64
0000000000021d94 g     F .text	000000000000004c mbedtls_mpi_core_cond_assign
00000000000233d4 g     F .text	0000000000000090 mbedtls_mpi_core_montmul_init
00000000000047ec g     F .text	00000000000003c4 smc_realm_create
0000000000028bd8 g     F .text	000000000000006c mbedtls_ecp_check_privkey
0000000000200408 g     O .data	0000000000000010 mbedtls_sha384_info
0000000000007344 g     F .text	00000000000006e0 smc_rtt_create
00000000000245ac g     F .text	0000000000000018 mbedtls_ecdsa_can_do
000000000000eff8 g     F .text	000000000000003c s2tte_is_unassigned_empty
0000000000003344 g     F .text	0000000000000070 vmid_free
000000000000fc7c g     F .text	0000000000000040 s2tt_init_unassigned_ram



Disassembly of section .text:

0000000000000000 <rmm_entry>:
.endm

/*
 * This is the main entry for both Primary and secondary PEs.
 */
func rmm_entry
       0:	d50324df 	bti	jc
	rmm_el2_init_env el2_vectors, cold_boot_flag, skip_to_warmboot
       4:	aa0003f4 	mov	x20, x0
       8:	aa0103f5 	mov	x21, x1
       c:	aa0203f6 	mov	x22, x2
      10:	aa0303f7 	mov	x23, x3
      14:	d29b23c1 	mov	x1, #0xd91e                	// #55582
      18:	f2a68ba1 	movk	x1, #0x345d, lsl #16
      1c:	d51c1001 	msr	sctlr_el2, x1
      20:	d2a10002 	mov	x2, #0x8000000             	// #134217728
      24:	f2c00482 	movk	x2, #0x24, lsl #32
      28:	d51c1102 	msr	hcr_el2, x2
      2c:	d2aa0003 	mov	x3, #0x50000000            	// #1342177280
      30:	d51c1143 	msr	cptr_el2, x3
      34:	d28001e4 	mov	x4, #0xf                   	// #15
      38:	d51cc9a4 	msr	icc_sre_el2, x4
      3c:	d5033fdf 	isb
      40:	580005c1 	ldr	x1, f8 <cold_boot_flag>
      44:	b4000041 	cbz	x1, 4c <rmm_entry+0x4c>
      48:	9400003c 	bl	138 <fixup_gdt_reloc>
      4c:	aa1403e0 	mov	x0, x20
      50:	94004a99 	bl	12ab4 <rmm_el3_ifc_validate_cpuid>
      54:	9400a829 	bl	2a0f8 <rmm_get_my_stack>
      58:	9100001f 	mov	sp, x0
      5c:	90000003 	adrp	x3, 0 <rmm_entry>
      60:	91200063 	add	x3, x3, #0x800
      64:	d51cc003 	msr	vbar_el2, x3
      68:	d5033fdf 	isb
      6c:	58000461 	ldr	x1, f8 <cold_boot_flag>
      70:	b50000c1 	cbnz	x1, 88 <rmm_entry+0x88>
      74:	aa1403e0 	mov	x0, x20
      78:	aa1503e1 	mov	x1, x21
      7c:	aa1603e2 	mov	x2, x22
      80:	aa1703e3 	mov	x3, x23
      84:	14000013 	b	d0 <skip_to_warmboot>
      88:	10000382 	adr	x2, f8 <cold_boot_flag>
      8c:	f900005f 	str	xzr, [x2]
      90:	f0001000 	adrp	x0, 203000 <rmm_rela_start+0xaa8>
      94:	910ec000 	add	x0, x0, #0x3b0
      98:	900113e1 	adrp	x1, 227c000 <g_rmm_pauth_apia>
      9c:	9108c021 	add	x1, x1, #0x230
      a0:	cb000022 	sub	x2, x1, x0
      a4:	aa1f03e1 	mov	x1, xzr
      a8:	94003702 	bl	dcb0 <memset>
      ac:	aa1403e0 	mov	x0, x20
      b0:	aa1503e1 	mov	x1, x21
      b4:	aa1603e2 	mov	x2, x22
      b8:	aa1703e3 	mov	x3, x23

	/*
	 * Initialize platform specific peripherals like UART and
	 * xlat tables.
	 */
	bl	plat_setup
      bc:	94003741 	bl	ddc0 <plat_setup>
	bl	xlat_enable_mmu_el2
      c0:	9400a7eb 	bl	2a06c <xlat_enable_mmu_el2>
	bl	pauth_init_enable_el2
      c4:	9400ac0e 	bl	2b0fc <pauth_init_enable_el2>

	bl	rmm_main
      c8:	940008a9 	bl	236c <rmm_main>
	b	smc_ret
      cc:	14000005 	b	e0 <smc_ret>

00000000000000d0 <skip_to_warmboot>:

skip_to_warmboot:
	/*
	 * Carry on with the rest of the RMM warmboot path
	 */
	bl	plat_warmboot_setup
      d0:	94003735 	bl	dda4 <plat_warmboot_setup>
	bl	xlat_enable_mmu_el2
      d4:	9400a7e6 	bl	2a06c <xlat_enable_mmu_el2>
	bl	pauth_init_enable_el2
      d8:	9400ac09 	bl	2b0fc <pauth_init_enable_el2>

	bl	rmm_warmboot_main
      dc:	9400089e 	bl	2354 <rmm_warmboot_main>

00000000000000e0 <smc_ret>:
smc_ret:
	mov_imm	x0, SMC_RMM_BOOT_COMPLETE
      e0:	d28039e0 	mov	x0, #0x1cf                 	// #463
      e4:	f2b88000 	movk	x0, #0xc400, lsl #16
	mov_imm	x1, E_RMM_BOOT_SUCCESS
      e8:	d2800001 	mov	x1, #0x0                   	// #0
	smc	#0
      ec:	d4000003 	smc	#0x0

	/* Jump to the SMC handler post-init */
	b	rmm_handler
      f0:	14000004 	b	100 <rmm_handler>
      f4:	d503201f 	nop

00000000000000f8 <cold_boot_flag>:
      f8:	00000001 	.word	0x00000001
      fc:	00000000 	.word	0x00000000

0000000000000100 <rmm_handler>:
#include <asm_macros.S>
#include <smc.h>

.globl rmm_handler

func rmm_handler
     100:	d50324df 	bti	jc
	/*
	 * Save Link Register and X4, as per SMCCC v1.2 its value
	 * must be preserved unless it contains result, as specified
	 * in the function definition.
	 */
	stp	x4, lr, [sp, #-16]!
     104:	a9bf7be4 	stp	x4, x30, [sp, #-16]!

	/*
	 * Zero the space for X0-X3 in the smc_result structure
	 * and pass its address as the last argument.
	 */
	stp	xzr, xzr, [sp, #-16]!
     108:	a9bf7fff 	stp	xzr, xzr, [sp, #-16]!
	stp	xzr, xzr, [sp, #-16]!
     10c:	a9bf7fff 	stp	xzr, xzr, [sp, #-16]!
	mov	x7, sp
     110:	910003e7 	mov	x7, sp

	bl	handle_ns_smc
     114:	9400077f 	bl	1f10 <handle_ns_smc>
	/*
	 * Copy command output values back to caller. Since this is
	 * done through SMC, X0 is used as the FID, and X1-X5 contain
	 * the values of X0-X4 copied from the smc_result structure.
	 */
	ldr	x0, =SMC_RMM_REQ_COMPLETE
     118:	580000c0 	ldr	x0, 130 <rmm_handler+0x30>
	ldp	x1, x2, [sp], #16
     11c:	a8c10be1 	ldp	x1, x2, [sp], #16
	ldp	x3, x4, [sp], #16
     120:	a8c113e3 	ldp	x3, x4, [sp], #16
	ldp	x5, lr, [sp], #16
     124:	a8c17be5 	ldp	x5, x30, [sp], #16

	smc	#0
     128:	d4000003 	smc	#0x0

	/* Continue the rmm handling loop */
	b	rmm_handler
     12c:	17fffff5 	b	100 <rmm_handler>
     130:	c400018f 	.word	0xc400018f
     134:	00000000 	.word	0x00000000

0000000000000138 <fixup_gdt_reloc>:

/* Relocation codes */
#define R_AARCH64_NONE		0
#define R_AARCH64_RELATIVE	1027

func fixup_gdt_reloc
     138:	d50324df 	bti	jc
	/* Lower Limit for fixup */
	mov	x0, xzr
     13c:	aa1f03e0 	mov	x0, xzr
	/* rmm_base and rmm_end are 4KB aligned hence adrp is enough */
	adrp	x2, rmm_base
     140:	90000002 	adrp	x2, 0 <rmm_entry>
	adrp	x1, rmm_end
     144:	b00119e1 	adrp	x1, 233d000 <rmm_eh_stack_end>
	/* Upper Limit for fixup (rmm_end - rmm_base) */
	sub	x1, x1, x2
     148:	cb020021 	sub	x1, x1, x2
	/*
	 * Since RMM will be compiled to start at 0x0, the current
         * PC relative `rmm_base` loaded in x2 will be the Diff(S)
	 * to be applied to the fixups.
	 */
	cbz	x2, 4f	/* Diff(S) = 0. No relocation needed */
     14c:	b40004a2 	cbz	x2, 1e0 <fixup_gdt_reloc+0xa8>

	adrp	x6, rmm_got_start
     150:	90000186 	adrp	x6, 30000 <secp384r1_T_19_X+0x18>
	add	x6, x6, :lo12:rmm_got_start
     154:	913ce0c6 	add	x6, x6, #0xf38
	adrp	x7, rmm_got_end
     158:	90000187 	adrp	x7, 30000 <secp384r1_T_19_X+0x18>
	add	x7, x7, :lo12:rmm_got_end
     15c:	913e20e7 	add	x7, x7, #0xf88
	 * GOT is an array of 64_bit addresses which must be fixed up as
	 * new_addr = old_addr + Diff(S).
	 * The new_addr is the address currently the binary is executing from
	 * and old_addr is the address at compile time.
	 */
1:	ldr	x3, [x6]
     160:	f94000c3 	ldr	x3, [x6]
	/* Skip adding offset if address is < lower limit */
	cmp	x3, x0
     164:	eb00007f 	cmp	x3, x0
	b.lo	2f
     168:	540000a3 	b.cc	17c <fixup_gdt_reloc+0x44>  // b.lo, b.ul, b.last

	/* Skip adding offset if address is > upper limit */
	cmp	x3, x1
     16c:	eb01007f 	cmp	x3, x1
	b.hi	2f
     170:	54000068 	b.hi	17c <fixup_gdt_reloc+0x44>  // b.pmore
	add	x3, x3, x2
     174:	8b020063 	add	x3, x3, x2
	str	x3, [x6]
     178:	f90000c3 	str	x3, [x6]

2:	add	x6, x6, #8
     17c:	910020c6 	add	x6, x6, #0x8
	cmp	x6, x7
     180:	eb0700df 	cmp	x6, x7
	b.lo	1b
     184:	54fffee3 	b.cc	160 <fixup_gdt_reloc+0x28>  // b.lo, b.ul, b.last

	/* Starting dynamic relocations */
3:	adrp	x6, rmm_rela_start
     188:	d0001006 	adrp	x6, 202000 <mm_regions_array.3+0x12c0>
	add	x6, x6, :lo12:rmm_rela_start
     18c:	911560c6 	add	x6, x6, #0x558
	adrp	x7, rmm_rela_end
     190:	f0001007 	adrp	x7, 203000 <rmm_rela_start+0xaa8>
	add	x7, x7, :lo12:rmm_rela_end
     194:	910ec0e7 	add	x7, x7, #0x3b0
	 * r_addend is constant part of expression.
	 *
	 * Size of Elf64_Rela structure is 24 bytes.
	 */

1:	ldr	x3, [x6, #8]	/* r_info */
     198:	f94004c3 	ldr	x3, [x6, #8]
	/* Skip R_AARCH64_NONE entry with code 0 */
	cbz	x3, 2f
     19c:	b40001c3 	cbz	x3, 1d4 <fixup_gdt_reloc+0x9c>

#ifndef NDEBUG
	/* Assert that the relocation type is R_AARCH64_RELATIVE */
	cmp	x3, #R_AARCH64_RELATIVE
     1a0:	f1100c7f 	cmp	x3, #0x403
	ASM_ASSERT eq
     1a4:	54000080 	b.eq	1b4 <fixup_gdt_reloc+0x7c>  // b.none
     1a8:	1015f2c0 	adr	x0, 2c000 <rmm_text_end>
     1ac:	d2801441 	mov	x1, #0xa2                  	// #162
     1b0:	14000000 	b	1b0 <fixup_gdt_reloc+0x78>
#endif
	ldr	x4, [x6, #16]	/* r_addend */
     1b4:	f94008c4 	ldr	x4, [x6, #16]

	/* Skip adding offset if r_addend is < lower limit */
	cmp	x4, x0
     1b8:	eb00009f 	cmp	x4, x0
	b.lo	2f
     1bc:	540000c3 	b.cc	1d4 <fixup_gdt_reloc+0x9c>  // b.lo, b.ul, b.last

	/* Skip adding offset if r_addend entry is > upper limit */
	cmp	x4, x1
     1c0:	eb01009f 	cmp	x4, x1
	b.hi	2f
     1c4:	54000088 	b.hi	1d4 <fixup_gdt_reloc+0x9c>  // b.pmore

	ldr	x3, [x6]	/* r_offset */
     1c8:	f94000c3 	ldr	x3, [x6]
	add	x4, x4, x2	/* Diff(S) + r_addend */
     1cc:	8b020084 	add	x4, x4, x2
	str	x4, [x3, x2]
     1d0:	f8226864 	str	x4, [x3, x2]

2:	add	x6, x6, #24
     1d4:	910060c6 	add	x6, x6, #0x18
	cmp	x6, x7
     1d8:	eb0700df 	cmp	x6, x7
	b.lo	1b
     1dc:	54fffde3 	b.cc	198 <fixup_gdt_reloc+0x60>  // b.lo, b.ul, b.last

4:
	ret
     1e0:	d65f03c0 	ret

00000000000001e4 <memcpy_ns_read>:
 * x0 - The address of buffer in Realm memory to write into
 * x1 - The address of buffer in NS memory to read from.
 * x2 - The number of bytes to read in bytes.
 * All arguments must be aligned to 8 bytes.
 */
func memcpy_ns_read
     1e4:	d50324df 	bti	jc
	cbz	x2, 2f
     1e8:	b40000e2 	cbz	x2, 204 <ns_read+0x14>
	mov	x3, #0
     1ec:	d2800003 	mov	x3, #0x0                   	// #0

00000000000001f0 <ns_read>:
1:
ns_read:
	ldr	x4, [x1], #8
     1f0:	f8408424 	ldr	x4, [x1], #8
	str	x4, [x0], #8
     1f4:	f8008404 	str	x4, [x0], #8
	add	x3, x3, #8
     1f8:	91002063 	add	x3, x3, #0x8
	cmp	x3, x2
     1fc:	eb02007f 	cmp	x3, x2
	bne	1b
     200:	54ffff81 	b.ne	1f0 <ns_read>  // b.any
2:
	mov	x0, #1
     204:	d2800020 	mov	x0, #0x1                   	// #1
	ret
     208:	d65f03c0 	ret

000000000000020c <memcpy_ns_write>:
 * x0 - The address of buffer in NS memory to write into
 * x1 - The address of buffer in Realm memory to read from.
 * x2 - The number of bytes to write.
 * All arguments must be aligned to 8 bytes.
 */
func memcpy_ns_write
     20c:	d50324df 	bti	jc
	cbz	x2, 2f
     210:	b40000e2 	cbz	x2, 22c <ns_write+0x10>
	mov	x3, #0
     214:	d2800003 	mov	x3, #0x0                   	// #0
1:
	ldr	x4, [x1], #8
     218:	f8408424 	ldr	x4, [x1], #8

000000000000021c <ns_write>:
ns_write:
	str	x4, [x0], #8
     21c:	f8008404 	str	x4, [x0], #8
	add	x3, x3, #8
     220:	91002063 	add	x3, x3, #0x8
	cmp	x3, x2
     224:	eb02007f 	cmp	x3, x2
	bne	1b
     228:	54ffff81 	b.ne	218 <memcpy_ns_write+0xc>  // b.any
2:
	mov	x0, #1
     22c:	d2800020 	mov	x0, #0x1                   	// #1
	ret
     230:	d65f03c0 	ret

0000000000000234 <ns_access_ret_0>:
endfunc memcpy_ns_write

func ns_access_ret_0
     234:	d50324df 	bti	jc
	mov	x0, #0
     238:	d2800000 	mov	x0, #0x0                   	// #0
	ret
     23c:	d65f03c0 	ret

0000000000000240 <run_realm>:
 * int run_realm(unsigned long *regs);
 *
 * Per the AAPCS we must preserve x19-x29, along with the SP. We may freely
 * corrupt x0-18 and the flags, but need the LR to return to our caller.
 */
func run_realm
     240:	d50324df 	bti	jc
	/* Push RMM registers to the stack */
	sub	sp, sp, #(16 * 6)
     244:	d10183ff 	sub	sp, sp, #0x60
	stp	x19, x20, [sp, #(16 * 0)]
     248:	a90053f3 	stp	x19, x20, [sp]
	stp	x21, x22, [sp, #(16 * 1)]
     24c:	a9015bf5 	stp	x21, x22, [sp, #16]
	stp	x23, x24, [sp, #(16 * 2)]
     250:	a90263f7 	stp	x23, x24, [sp, #32]
	stp	x25, x26, [sp, #(16 * 3)]
     254:	a9036bf9 	stp	x25, x26, [sp, #48]
	stp	x27, x28, [sp, #(16 * 4)]
     258:	a90473fb 	stp	x27, x28, [sp, #64]
	stp	x29, x30, [sp, #(16 * 5)]
     25c:	a9057bfd 	stp	x29, x30, [sp, #80]

	/* Push rec pointer to the stack for realm_exit */
	stp	x0, xzr, [sp, #-16]!
     260:	a9bf7fe0 	stp	x0, xzr, [sp, #-16]!

	/* load realm GPRs (offsetof(rec, rec->regs[0]) == 0) */
	ldp	x2,  x3,  [x0, #(16 * 1)]
     264:	a9410c02 	ldp	x2, x3, [x0, #16]
	ldp	x4,  x5,  [x0, #(16 * 2)]
     268:	a9421404 	ldp	x4, x5, [x0, #32]
	ldp	x6,  x7,  [x0, #(16 * 3)]
     26c:	a9431c06 	ldp	x6, x7, [x0, #48]
	ldp	x8,  x9,  [x0, #(16 * 4)]
     270:	a9442408 	ldp	x8, x9, [x0, #64]
	ldp	x10, x11, [x0, #(16 * 5)]
     274:	a9452c0a 	ldp	x10, x11, [x0, #80]
	ldp	x12, x13, [x0, #(16 * 6)]
     278:	a946340c 	ldp	x12, x13, [x0, #96]
	ldp	x14, x15, [x0, #(16 * 7)]
     27c:	a9473c0e 	ldp	x14, x15, [x0, #112]
	ldp	x16, x17, [x0, #(16 * 8)]
     280:	a9484410 	ldp	x16, x17, [x0, #128]
	ldp	x18, x19, [x0, #(16 * 9)]
     284:	a9494c12 	ldp	x18, x19, [x0, #144]
	ldp	x20, x21, [x0, #(16 * 10)]
     288:	a94a5414 	ldp	x20, x21, [x0, #160]
	ldp	x22, x23, [x0, #(16 * 11)]
     28c:	a94b5c16 	ldp	x22, x23, [x0, #176]
	ldp	x24, x25, [x0, #(16 * 12)]
     290:	a94c6418 	ldp	x24, x25, [x0, #192]
	ldp	x26, x27, [x0, #(16 * 13)]
     294:	a94d6c1a 	ldp	x26, x27, [x0, #208]
	ldp	x28, x29, [x0, #(16 * 14)]
     298:	a94e741c 	ldp	x28, x29, [x0, #224]
	ldr	x30,      [x0, #(16 * 15)]
     29c:	f940781e 	ldr	x30, [x0, #240]
	ldr	x1,       [x0, #(16 * 15 + 8)]
     2a0:	f9407c01 	ldr	x1, [x0, #248]
	msr	sp_el0, x1
     2a4:	d5184101 	msr	sp_el0, x1
	ldp	x0,  x1,  [x0, #(16 * 0)]
     2a8:	a9400400 	ldp	x0, x1, [x0]

	eret
     2ac:	d69f03e0 	eret
	sb
     2b0:	d50330ff 	sb

00000000000002b4 <realm_exit>:
endfunc run_realm

func realm_exit
     2b4:	d50324df 	bti	jc
	 *
	 * First, restore realm_gprs ptr to x1
	 */

	/* Recover the rec pointer */
	ldr	x1, [sp, #16]
     2b8:	f9400be1 	ldr	x1, [sp, #16]

	/* Store realm GPRs (offsetof(rec, rec->regs[0]) == 0) */
	stp	x2,  x3,  [x1, #(16 * 1)]
     2bc:	a9010c22 	stp	x2, x3, [x1, #16]
	stp	x4,  x5,  [x1, #(16 * 2)]
     2c0:	a9021424 	stp	x4, x5, [x1, #32]
	stp	x6,  x7,  [x1, #(16 * 3)]
     2c4:	a9031c26 	stp	x6, x7, [x1, #48]
	stp	x8,  x9,  [x1, #(16 * 4)]
     2c8:	a9042428 	stp	x8, x9, [x1, #64]
	stp	x10, x11, [x1, #(16 * 5)]
     2cc:	a9052c2a 	stp	x10, x11, [x1, #80]
	stp	x12, x13, [x1, #(16 * 6)]
     2d0:	a906342c 	stp	x12, x13, [x1, #96]
	stp	x14, x15, [x1, #(16 * 7)]
     2d4:	a9073c2e 	stp	x14, x15, [x1, #112]
	stp	x16, x17, [x1, #(16 * 8)]
     2d8:	a9084430 	stp	x16, x17, [x1, #128]
	stp	x18, x19, [x1, #(16 * 9)]
     2dc:	a9094c32 	stp	x18, x19, [x1, #144]
	stp	x20, x21, [x1, #(16 * 10)]
     2e0:	a90a5434 	stp	x20, x21, [x1, #160]
	stp	x22, x23, [x1, #(16 * 11)]
     2e4:	a90b5c36 	stp	x22, x23, [x1, #176]
	stp	x24, x25, [x1, #(16 * 12)]
     2e8:	a90c6438 	stp	x24, x25, [x1, #192]
	stp	x26, x27, [x1, #(16 * 13)]
     2ec:	a90d6c3a 	stp	x26, x27, [x1, #208]
	stp	x28, x29, [x1, #(16 * 14)]
     2f0:	a90e743c 	stp	x28, x29, [x1, #224]
	str	x30,      [x1, #(16 * 15)]
     2f4:	f900783e 	str	x30, [x1, #240]
	mrs	x2, sp_el0
     2f8:	d5384102 	mrs	x2, sp_el0
	str	x2,       [x1, #(16 * 15 + 8)]
     2fc:	f9007c22 	str	x2, [x1, #248]

	/* Load the exception handler stack bottom to SP_EL0 */
	mov_imm	x2, RMM_CPU_EH_STACK_END_VA
     300:	d2bfffc2 	mov	x2, #0xfffe0000            	// #4294836224
     304:	f2dfffe2 	movk	x2, #0xffff, lsl #32
     308:	f2ffffe2 	movk	x2, #0xffff, lsl #48
	msr	sp_el0, x2
     30c:	d5184102 	msr	sp_el0, x2

	/* x0 and x1 as stored by el2_vectors */
	ldp	x2, x3,	  [sp]
     310:	a9400fe2 	ldp	x2, x3, [sp]
	stp	x2, x3,   [x1, #(16 * 0)]
     314:	a9000c22 	stp	x2, x3, [x1]

	/* Move sp to the realm regs */
	add	sp, sp, #32
     318:	910083ff 	add	sp, sp, #0x20
	/*
	 * Restore the RMM registers from the stack
	 * including the return address to return to
	 * after calling run_realm().
	 */
	ldp	x19, x20, [sp, #(16 * 0)]
     31c:	a94053f3 	ldp	x19, x20, [sp]
	ldp	x21, x22, [sp, #(16 * 1)]
     320:	a9415bf5 	ldp	x21, x22, [sp, #16]
	ldp	x23, x24, [sp, #(16 * 2)]
     324:	a94263f7 	ldp	x23, x24, [sp, #32]
	ldp	x25, x26, [sp, #(16 * 3)]
     328:	a9436bf9 	ldp	x25, x26, [sp, #48]
	ldp	x27, x28, [sp, #(16 * 4)]
     32c:	a94473fb 	ldp	x27, x28, [sp, #64]
	ldp	x29, x30, [sp, #(16 * 5)]
     330:	a9457bfd 	ldp	x29, x30, [sp, #80]
	add	sp, sp, #(16 * 6)
     334:	910183ff 	add	sp, sp, #0x60

	ret
     338:	d65f03c0 	ret
	...

0000000000000800 <el2_vectors>:

	// VBAR_EL3[10:0] are hardwired to 0, align vector address accordingly
	.balign 0x800

ENTRY(el2_vectors):
	ventry_unused	exc_sync_sp0
     800:	d503205f 	wfe
     804:	17ffffff 	b	800 <el2_vectors>
     808:	d503201f 	nop
     80c:	d503201f 	nop
     810:	d503201f 	nop
     814:	d503201f 	nop
     818:	d503201f 	nop
     81c:	d503201f 	nop
     820:	d503201f 	nop
     824:	d503201f 	nop
     828:	d503201f 	nop
     82c:	d503201f 	nop
     830:	d503201f 	nop
     834:	d503201f 	nop
     838:	d503201f 	nop
     83c:	d503201f 	nop
     840:	d503201f 	nop
     844:	d503201f 	nop
     848:	d503201f 	nop
     84c:	d503201f 	nop
     850:	d503201f 	nop
     854:	d503201f 	nop
     858:	d503201f 	nop
     85c:	d503201f 	nop
     860:	d503201f 	nop
     864:	d503201f 	nop
     868:	d503201f 	nop
     86c:	d503201f 	nop
     870:	d503201f 	nop
     874:	d503201f 	nop
     878:	d503201f 	nop
     87c:	d503201f 	nop
	ventry_unused	exc_irq_sp0
     880:	d503205f 	wfe
     884:	17ffffff 	b	880 <el2_vectors+0x80>
     888:	d503201f 	nop
     88c:	d503201f 	nop
     890:	d503201f 	nop
     894:	d503201f 	nop
     898:	d503201f 	nop
     89c:	d503201f 	nop
     8a0:	d503201f 	nop
     8a4:	d503201f 	nop
     8a8:	d503201f 	nop
     8ac:	d503201f 	nop
     8b0:	d503201f 	nop
     8b4:	d503201f 	nop
     8b8:	d503201f 	nop
     8bc:	d503201f 	nop
     8c0:	d503201f 	nop
     8c4:	d503201f 	nop
     8c8:	d503201f 	nop
     8cc:	d503201f 	nop
     8d0:	d503201f 	nop
     8d4:	d503201f 	nop
     8d8:	d503201f 	nop
     8dc:	d503201f 	nop
     8e0:	d503201f 	nop
     8e4:	d503201f 	nop
     8e8:	d503201f 	nop
     8ec:	d503201f 	nop
     8f0:	d503201f 	nop
     8f4:	d503201f 	nop
     8f8:	d503201f 	nop
     8fc:	d503201f 	nop
	ventry_unused	exc_fiq_sp0
     900:	d503205f 	wfe
     904:	17ffffff 	b	900 <el2_vectors+0x100>
     908:	d503201f 	nop
     90c:	d503201f 	nop
     910:	d503201f 	nop
     914:	d503201f 	nop
     918:	d503201f 	nop
     91c:	d503201f 	nop
     920:	d503201f 	nop
     924:	d503201f 	nop
     928:	d503201f 	nop
     92c:	d503201f 	nop
     930:	d503201f 	nop
     934:	d503201f 	nop
     938:	d503201f 	nop
     93c:	d503201f 	nop
     940:	d503201f 	nop
     944:	d503201f 	nop
     948:	d503201f 	nop
     94c:	d503201f 	nop
     950:	d503201f 	nop
     954:	d503201f 	nop
     958:	d503201f 	nop
     95c:	d503201f 	nop
     960:	d503201f 	nop
     964:	d503201f 	nop
     968:	d503201f 	nop
     96c:	d503201f 	nop
     970:	d503201f 	nop
     974:	d503201f 	nop
     978:	d503201f 	nop
     97c:	d503201f 	nop
	ventry_unused	exc_serror_sp0
     980:	d503205f 	wfe
     984:	17ffffff 	b	980 <el2_vectors+0x180>
     988:	d503201f 	nop
     98c:	d503201f 	nop
     990:	d503201f 	nop
     994:	d503201f 	nop
     998:	d503201f 	nop
     99c:	d503201f 	nop
     9a0:	d503201f 	nop
     9a4:	d503201f 	nop
     9a8:	d503201f 	nop
     9ac:	d503201f 	nop
     9b0:	d503201f 	nop
     9b4:	d503201f 	nop
     9b8:	d503201f 	nop
     9bc:	d503201f 	nop
     9c0:	d503201f 	nop
     9c4:	d503201f 	nop
     9c8:	d503201f 	nop
     9cc:	d503201f 	nop
     9d0:	d503201f 	nop
     9d4:	d503201f 	nop
     9d8:	d503201f 	nop
     9dc:	d503201f 	nop
     9e0:	d503201f 	nop
     9e4:	d503201f 	nop
     9e8:	d503201f 	nop
     9ec:	d503201f 	nop
     9f0:	d503201f 	nop
     9f4:	d503201f 	nop
     9f8:	d503201f 	nop
     9fc:	d503201f 	nop

	ventry		el2_sync_cel
     a00:	1400016e 	b	fb8 <el2_sync_cel>
     a04:	d503201f 	nop
     a08:	d503201f 	nop
     a0c:	d503201f 	nop
     a10:	d503201f 	nop
     a14:	d503201f 	nop
     a18:	d503201f 	nop
     a1c:	d503201f 	nop
     a20:	d503201f 	nop
     a24:	d503201f 	nop
     a28:	d503201f 	nop
     a2c:	d503201f 	nop
     a30:	d503201f 	nop
     a34:	d503201f 	nop
     a38:	d503201f 	nop
     a3c:	d503201f 	nop
     a40:	d503201f 	nop
     a44:	d503201f 	nop
     a48:	d503201f 	nop
     a4c:	d503201f 	nop
     a50:	d503201f 	nop
     a54:	d503201f 	nop
     a58:	d503201f 	nop
     a5c:	d503201f 	nop
     a60:	d503201f 	nop
     a64:	d503201f 	nop
     a68:	d503201f 	nop
     a6c:	d503201f 	nop
     a70:	d503201f 	nop
     a74:	d503201f 	nop
     a78:	d503201f 	nop
     a7c:	d503201f 	nop
	ventry_unused	exc_irq_spx
     a80:	d503205f 	wfe
     a84:	17ffffff 	b	a80 <el2_vectors+0x280>
     a88:	d503201f 	nop
     a8c:	d503201f 	nop
     a90:	d503201f 	nop
     a94:	d503201f 	nop
     a98:	d503201f 	nop
     a9c:	d503201f 	nop
     aa0:	d503201f 	nop
     aa4:	d503201f 	nop
     aa8:	d503201f 	nop
     aac:	d503201f 	nop
     ab0:	d503201f 	nop
     ab4:	d503201f 	nop
     ab8:	d503201f 	nop
     abc:	d503201f 	nop
     ac0:	d503201f 	nop
     ac4:	d503201f 	nop
     ac8:	d503201f 	nop
     acc:	d503201f 	nop
     ad0:	d503201f 	nop
     ad4:	d503201f 	nop
     ad8:	d503201f 	nop
     adc:	d503201f 	nop
     ae0:	d503201f 	nop
     ae4:	d503201f 	nop
     ae8:	d503201f 	nop
     aec:	d503201f 	nop
     af0:	d503201f 	nop
     af4:	d503201f 	nop
     af8:	d503201f 	nop
     afc:	d503201f 	nop
	ventry_unused	exc_fiq_spx
     b00:	d503205f 	wfe
     b04:	17ffffff 	b	b00 <el2_vectors+0x300>
     b08:	d503201f 	nop
     b0c:	d503201f 	nop
     b10:	d503201f 	nop
     b14:	d503201f 	nop
     b18:	d503201f 	nop
     b1c:	d503201f 	nop
     b20:	d503201f 	nop
     b24:	d503201f 	nop
     b28:	d503201f 	nop
     b2c:	d503201f 	nop
     b30:	d503201f 	nop
     b34:	d503201f 	nop
     b38:	d503201f 	nop
     b3c:	d503201f 	nop
     b40:	d503201f 	nop
     b44:	d503201f 	nop
     b48:	d503201f 	nop
     b4c:	d503201f 	nop
     b50:	d503201f 	nop
     b54:	d503201f 	nop
     b58:	d503201f 	nop
     b5c:	d503201f 	nop
     b60:	d503201f 	nop
     b64:	d503201f 	nop
     b68:	d503201f 	nop
     b6c:	d503201f 	nop
     b70:	d503201f 	nop
     b74:	d503201f 	nop
     b78:	d503201f 	nop
     b7c:	d503201f 	nop
	ventry_unused	exc_serror_spx
     b80:	d503205f 	wfe
     b84:	17ffffff 	b	b80 <el2_vectors+0x380>
     b88:	d503201f 	nop
     b8c:	d503201f 	nop
     b90:	d503201f 	nop
     b94:	d503201f 	nop
     b98:	d503201f 	nop
     b9c:	d503201f 	nop
     ba0:	d503201f 	nop
     ba4:	d503201f 	nop
     ba8:	d503201f 	nop
     bac:	d503201f 	nop
     bb0:	d503201f 	nop
     bb4:	d503201f 	nop
     bb8:	d503201f 	nop
     bbc:	d503201f 	nop
     bc0:	d503201f 	nop
     bc4:	d503201f 	nop
     bc8:	d503201f 	nop
     bcc:	d503201f 	nop
     bd0:	d503201f 	nop
     bd4:	d503201f 	nop
     bd8:	d503201f 	nop
     bdc:	d503201f 	nop
     be0:	d503201f 	nop
     be4:	d503201f 	nop
     be8:	d503201f 	nop
     bec:	d503201f 	nop
     bf0:	d503201f 	nop
     bf4:	d503201f 	nop
     bf8:	d503201f 	nop
     bfc:	d503201f 	nop

	ventry		el2_sync_lel
     c00:	140000e2 	b	f88 <el2_sync_lel>
     c04:	d503201f 	nop
     c08:	d503201f 	nop
     c0c:	d503201f 	nop
     c10:	d503201f 	nop
     c14:	d503201f 	nop
     c18:	d503201f 	nop
     c1c:	d503201f 	nop
     c20:	d503201f 	nop
     c24:	d503201f 	nop
     c28:	d503201f 	nop
     c2c:	d503201f 	nop
     c30:	d503201f 	nop
     c34:	d503201f 	nop
     c38:	d503201f 	nop
     c3c:	d503201f 	nop
     c40:	d503201f 	nop
     c44:	d503201f 	nop
     c48:	d503201f 	nop
     c4c:	d503201f 	nop
     c50:	d503201f 	nop
     c54:	d503201f 	nop
     c58:	d503201f 	nop
     c5c:	d503201f 	nop
     c60:	d503201f 	nop
     c64:	d503201f 	nop
     c68:	d503201f 	nop
     c6c:	d503201f 	nop
     c70:	d503201f 	nop
     c74:	d503201f 	nop
     c78:	d503201f 	nop
     c7c:	d503201f 	nop
	ventry		el2_irq_lel
     c80:	140000c5 	b	f94 <el2_irq_lel>
     c84:	d503201f 	nop
     c88:	d503201f 	nop
     c8c:	d503201f 	nop
     c90:	d503201f 	nop
     c94:	d503201f 	nop
     c98:	d503201f 	nop
     c9c:	d503201f 	nop
     ca0:	d503201f 	nop
     ca4:	d503201f 	nop
     ca8:	d503201f 	nop
     cac:	d503201f 	nop
     cb0:	d503201f 	nop
     cb4:	d503201f 	nop
     cb8:	d503201f 	nop
     cbc:	d503201f 	nop
     cc0:	d503201f 	nop
     cc4:	d503201f 	nop
     cc8:	d503201f 	nop
     ccc:	d503201f 	nop
     cd0:	d503201f 	nop
     cd4:	d503201f 	nop
     cd8:	d503201f 	nop
     cdc:	d503201f 	nop
     ce0:	d503201f 	nop
     ce4:	d503201f 	nop
     ce8:	d503201f 	nop
     cec:	d503201f 	nop
     cf0:	d503201f 	nop
     cf4:	d503201f 	nop
     cf8:	d503201f 	nop
     cfc:	d503201f 	nop
	ventry		el2_fiq_lel
     d00:	140000a8 	b	fa0 <el2_fiq_lel>
     d04:	d503201f 	nop
     d08:	d503201f 	nop
     d0c:	d503201f 	nop
     d10:	d503201f 	nop
     d14:	d503201f 	nop
     d18:	d503201f 	nop
     d1c:	d503201f 	nop
     d20:	d503201f 	nop
     d24:	d503201f 	nop
     d28:	d503201f 	nop
     d2c:	d503201f 	nop
     d30:	d503201f 	nop
     d34:	d503201f 	nop
     d38:	d503201f 	nop
     d3c:	d503201f 	nop
     d40:	d503201f 	nop
     d44:	d503201f 	nop
     d48:	d503201f 	nop
     d4c:	d503201f 	nop
     d50:	d503201f 	nop
     d54:	d503201f 	nop
     d58:	d503201f 	nop
     d5c:	d503201f 	nop
     d60:	d503201f 	nop
     d64:	d503201f 	nop
     d68:	d503201f 	nop
     d6c:	d503201f 	nop
     d70:	d503201f 	nop
     d74:	d503201f 	nop
     d78:	d503201f 	nop
     d7c:	d503201f 	nop
	ventry		el2_serror_lel
     d80:	1400008b 	b	fac <el2_serror_lel>
     d84:	d503201f 	nop
     d88:	d503201f 	nop
     d8c:	d503201f 	nop
     d90:	d503201f 	nop
     d94:	d503201f 	nop
     d98:	d503201f 	nop
     d9c:	d503201f 	nop
     da0:	d503201f 	nop
     da4:	d503201f 	nop
     da8:	d503201f 	nop
     dac:	d503201f 	nop
     db0:	d503201f 	nop
     db4:	d503201f 	nop
     db8:	d503201f 	nop
     dbc:	d503201f 	nop
     dc0:	d503201f 	nop
     dc4:	d503201f 	nop
     dc8:	d503201f 	nop
     dcc:	d503201f 	nop
     dd0:	d503201f 	nop
     dd4:	d503201f 	nop
     dd8:	d503201f 	nop
     ddc:	d503201f 	nop
     de0:	d503201f 	nop
     de4:	d503201f 	nop
     de8:	d503201f 	nop
     dec:	d503201f 	nop
     df0:	d503201f 	nop
     df4:	d503201f 	nop
     df8:	d503201f 	nop
     dfc:	d503201f 	nop

	ventry_unused	exc_sync_lel_32
     e00:	d503205f 	wfe
     e04:	17ffffff 	b	e00 <el2_vectors+0x600>
     e08:	d503201f 	nop
     e0c:	d503201f 	nop
     e10:	d503201f 	nop
     e14:	d503201f 	nop
     e18:	d503201f 	nop
     e1c:	d503201f 	nop
     e20:	d503201f 	nop
     e24:	d503201f 	nop
     e28:	d503201f 	nop
     e2c:	d503201f 	nop
     e30:	d503201f 	nop
     e34:	d503201f 	nop
     e38:	d503201f 	nop
     e3c:	d503201f 	nop
     e40:	d503201f 	nop
     e44:	d503201f 	nop
     e48:	d503201f 	nop
     e4c:	d503201f 	nop
     e50:	d503201f 	nop
     e54:	d503201f 	nop
     e58:	d503201f 	nop
     e5c:	d503201f 	nop
     e60:	d503201f 	nop
     e64:	d503201f 	nop
     e68:	d503201f 	nop
     e6c:	d503201f 	nop
     e70:	d503201f 	nop
     e74:	d503201f 	nop
     e78:	d503201f 	nop
     e7c:	d503201f 	nop
	ventry_unused	exc_irq_lel_32
     e80:	d503205f 	wfe
     e84:	17ffffff 	b	e80 <el2_vectors+0x680>
     e88:	d503201f 	nop
     e8c:	d503201f 	nop
     e90:	d503201f 	nop
     e94:	d503201f 	nop
     e98:	d503201f 	nop
     e9c:	d503201f 	nop
     ea0:	d503201f 	nop
     ea4:	d503201f 	nop
     ea8:	d503201f 	nop
     eac:	d503201f 	nop
     eb0:	d503201f 	nop
     eb4:	d503201f 	nop
     eb8:	d503201f 	nop
     ebc:	d503201f 	nop
     ec0:	d503201f 	nop
     ec4:	d503201f 	nop
     ec8:	d503201f 	nop
     ecc:	d503201f 	nop
     ed0:	d503201f 	nop
     ed4:	d503201f 	nop
     ed8:	d503201f 	nop
     edc:	d503201f 	nop
     ee0:	d503201f 	nop
     ee4:	d503201f 	nop
     ee8:	d503201f 	nop
     eec:	d503201f 	nop
     ef0:	d503201f 	nop
     ef4:	d503201f 	nop
     ef8:	d503201f 	nop
     efc:	d503201f 	nop
	ventry_unused	exc_fiq_lel_32
     f00:	d503205f 	wfe
     f04:	17ffffff 	b	f00 <el2_vectors+0x700>
     f08:	d503201f 	nop
     f0c:	d503201f 	nop
     f10:	d503201f 	nop
     f14:	d503201f 	nop
     f18:	d503201f 	nop
     f1c:	d503201f 	nop
     f20:	d503201f 	nop
     f24:	d503201f 	nop
     f28:	d503201f 	nop
     f2c:	d503201f 	nop
     f30:	d503201f 	nop
     f34:	d503201f 	nop
     f38:	d503201f 	nop
     f3c:	d503201f 	nop
     f40:	d503201f 	nop
     f44:	d503201f 	nop
     f48:	d503201f 	nop
     f4c:	d503201f 	nop
     f50:	d503201f 	nop
     f54:	d503201f 	nop
     f58:	d503201f 	nop
     f5c:	d503201f 	nop
     f60:	d503201f 	nop
     f64:	d503201f 	nop
     f68:	d503201f 	nop
     f6c:	d503201f 	nop
     f70:	d503201f 	nop
     f74:	d503201f 	nop
     f78:	d503201f 	nop
     f7c:	d503201f 	nop
	ventry_unused	exc_serror_lel_32
     f80:	d503205f 	wfe
     f84:	17ffffff 	b	f80 <el2_vectors+0x780>

0000000000000f88 <el2_sync_lel>:
ENDPROC(el2_vectors)

el2_sync_lel:
	stp	x0, x1, [sp, #-16]!
     f88:	a9bf07e0 	stp	x0, x1, [sp, #-16]!
	mov	x0, #ARM_EXCEPTION_SYNC_LEL
     f8c:	d2800000 	mov	x0, #0x0                   	// #0
	b	realm_exit
     f90:	17fffcc9 	b	2b4 <realm_exit>

0000000000000f94 <el2_irq_lel>:
ENDPROC(el2_sync_lel)

el2_irq_lel:
	stp	x0, x1, [sp, #-16]!
     f94:	a9bf07e0 	stp	x0, x1, [sp, #-16]!
	mov	x0, #ARM_EXCEPTION_IRQ_LEL
     f98:	d2800020 	mov	x0, #0x1                   	// #1
	b	realm_exit
     f9c:	17fffcc6 	b	2b4 <realm_exit>

0000000000000fa0 <el2_fiq_lel>:
ENDPROC(el2_sync_lel)

el2_fiq_lel:
	stp	x0, x1, [sp, #-16]!
     fa0:	a9bf07e0 	stp	x0, x1, [sp, #-16]!
	mov	x0, #ARM_EXCEPTION_FIQ_LEL
     fa4:	d2800040 	mov	x0, #0x2                   	// #2
	b	realm_exit
     fa8:	17fffcc3 	b	2b4 <realm_exit>

0000000000000fac <el2_serror_lel>:
ENDPROC(el2_sync_lel)

el2_serror_lel:
	stp	x0, x1, [sp, #-16]!
     fac:	a9bf07e0 	stp	x0, x1, [sp, #-16]!
	mov	x0, #ARM_EXCEPTION_SERROR_LEL
     fb0:	d2800060 	mov	x0, #0x3                   	// #3
	b	realm_exit
     fb4:	17fffcc0 	b	2b4 <realm_exit>

0000000000000fb8 <el2_sync_cel>:
ENDPROC(el2_serror_lel)

el2_sync_cel:

	/* Switch to exception handler stack */
	msr	spsel, #0
     fb8:	d50040bf 	msr	spsel, #0x0

	stp	x0, x1, [sp, #-16]!
     fbc:	a9bf07e0 	stp	x0, x1, [sp, #-16]!
	stp	x2, x3, [sp, #-16]!
     fc0:	a9bf0fe2 	stp	x2, x3, [sp, #-16]!
	stp	x4, x5, [sp, #-16]!
     fc4:	a9bf17e4 	stp	x4, x5, [sp, #-16]!
	stp	x6, x7, [sp, #-16]!
     fc8:	a9bf1fe6 	stp	x6, x7, [sp, #-16]!
	stp	x8, x9, [sp, #-16]!
     fcc:	a9bf27e8 	stp	x8, x9, [sp, #-16]!
	stp	x10, x11, [sp, #-16]!
     fd0:	a9bf2fea 	stp	x10, x11, [sp, #-16]!
	stp	x12, x13, [sp, #-16]!
     fd4:	a9bf37ec 	stp	x12, x13, [sp, #-16]!
	stp	x14, x15, [sp, #-16]!
     fd8:	a9bf3fee 	stp	x14, x15, [sp, #-16]!
	stp	x16, x17, [sp, #-16]!
     fdc:	a9bf47f0 	stp	x16, x17, [sp, #-16]!
	stp	x18, xzr, [sp, #-16]!
     fe0:	a9bf7ff2 	stp	x18, xzr, [sp, #-16]!
	stp	x29, lr, [sp, #-16]!
     fe4:	a9bf7bfd 	stp	x29, x30, [sp, #-16]!

	bl	handle_rmm_trap
     fe8:	9400049c 	bl	2258 <handle_rmm_trap>

	/*
	 * If it doesn't panic the RMM, handle_rmm_trap
	 * returns the new value of PC in x0.
	 */
	msr	elr_el2, x0
     fec:	d51c4020 	msr	elr_el2, x0

	ldp	x29, lr, [sp], #16
     ff0:	a8c17bfd 	ldp	x29, x30, [sp], #16
	ldp	x18, xzr, [sp], #16
     ff4:	a8c17ff2 	ldp	x18, xzr, [sp], #16
	ldp	x16, x17, [sp], #16
     ff8:	a8c147f0 	ldp	x16, x17, [sp], #16
	ldp	x14, x15, [sp], #16
     ffc:	a8c13fee 	ldp	x14, x15, [sp], #16
	ldp	x12, x13, [sp], #16
    1000:	a8c137ec 	ldp	x12, x13, [sp], #16
	ldp	x10, x11, [sp], #16
    1004:	a8c12fea 	ldp	x10, x11, [sp], #16
	ldp	x8, x9, [sp], #16
    1008:	a8c127e8 	ldp	x8, x9, [sp], #16
	ldp	x6, x7, [sp], #16
    100c:	a8c11fe6 	ldp	x6, x7, [sp], #16
	ldp	x4, x5, [sp], #16
    1010:	a8c117e4 	ldp	x4, x5, [sp], #16
	ldp	x2, x3, [sp], #16
    1014:	a8c10fe2 	ldp	x2, x3, [sp], #16
	ldp	x0, x1, [sp], #16
    1018:	a8c107e0 	ldp	x0, x1, [sp], #16

	/* Switch back to normal stack */
	msr	spsel, #1
    101c:	d50041bf 	msr	spsel, #0x1

	eret
    1020:	d69f03e0 	eret
	sb
    1024:	d50330ff 	sb

0000000000001028 <fixup_aarch32_data_abort>:
DEFINE_SYSREG_READ_FUNC(id_afr0_el1)
DEFINE_SYSREG_READ_FUNC(CurrentEl)
DEFINE_SYSREG_READ_FUNC(ctr_el0)
DEFINE_SYSREG_RW_FUNCS(daif)
DEFINE_SYSREG_RW_FUNCS(spsr_el1)
DEFINE_SYSREG_RW_FUNCS(spsr_el2)
    1028:	d53c4000 	mrs	x0, spsr_el2
static bool fixup_aarch32_data_abort(struct rec *rec, unsigned long *esr)
{
	unsigned long spsr = read_spsr_el2();
	(void)rec;

	if ((spsr & SPSR_EL2_nRW_AARCH32) != 0UL) {
    102c:	37200060 	tbnz	w0, #4, 1038 <fixup_aarch32_data_abort+0x10>
		 * mmio emulation of AArch32 reads/writes is not supported.
		 */
		*esr &= ~ESR_EL2_ABORT_ISV_BIT;
		return true;
	}
	return false;
    1030:	52800000 	mov	w0, #0x0                   	// #0
}
    1034:	d65f03c0 	ret
		*esr &= ~ESR_EL2_ABORT_ISV_BIT;
    1038:	f9400020 	ldr	x0, [x1]
    103c:	9267f800 	and	x0, x0, #0xfffffffffeffffff
    1040:	f9000020 	str	x0, [x1]
		return true;
    1044:	52800020 	mov	w0, #0x1                   	// #1
    1048:	17fffffb 	b	1034 <fixup_aarch32_data_abort+0xc>

000000000000104c <access_in_rec_par>:
	       addr_is_contained(container_base, container_end, region_end - 1UL);
}

static inline unsigned long rec_ipa_size(struct rec *rec)
{
	return (1UL << rec->realm_info.ipa_bits);
    104c:	f941ec02 	ldr	x2, [x0, #984]
    1050:	d2800020 	mov	x0, #0x1                   	// #1
    1054:	9ac22000 	lsl	x0, x0, x2
	return (rec_ipa_size(rec) / 2U);
}

static inline bool addr_in_rec_par(struct rec *rec, unsigned long addr)
{
	return (addr < rec_par_size(rec));
    1058:	eb40043f 	cmp	x1, x0, lsr #1
	 * - The Protected IPA space starts at address zero.
	 * - The IPA width is below 64 bits, therefore the access cannot
	 *   wrap around.
	 */
	return addr_in_rec_par(rec, addr);
}
    105c:	1a9f27e0 	cset	w0, cc  // cc = lo, ul, last
    1060:	d65f03c0 	ret

0000000000001064 <fsc_is_external_abort>:
	return false;
}

static bool fsc_is_external_abort(unsigned long fsc)
{
	if (fsc == ESR_EL2_ABORT_FSC_SEA) {
    1064:	f100401f 	cmp	x0, #0x10
    1068:	540000c0 	b.eq	1080 <fsc_is_external_abort+0x1c>  // b.none
		return true;
	}

	if ((fsc >= ESR_EL2_ABORT_FSC_SEA_TTW_START) &&
    106c:	d1004c00 	sub	x0, x0, #0x13
    1070:	f100101f 	cmp	x0, #0x4
    1074:	540000a9 	b.ls	1088 <fsc_is_external_abort+0x24>  // b.plast
	    (fsc <= ESR_EL2_ABORT_FSC_SEA_TTW_END)) {
		return true;
	}

	return false;
    1078:	52800000 	mov	w0, #0x0                   	// #0
}
    107c:	d65f03c0 	ret
		return true;
    1080:	52800020 	mov	w0, #0x1                   	// #1
    1084:	17fffffe 	b	107c <fsc_is_external_abort+0x18>
		return true;
    1088:	52800020 	mov	w0, #0x1                   	// #1
    108c:	17fffffc 	b	107c <fsc_is_external_abort+0x18>

0000000000001090 <advance_pc>:
DEFINE_SYSREG_RW_FUNCS(elr_el1)
DEFINE_SYSREG_RW_FUNCS(elr_el2)
    1090:	d53c4020 	mrs	x0, elr_el2

static void advance_pc(void)
{
	unsigned long pc = read_elr_el2();

	write_elr_el2(pc + 4UL);
    1094:	91001000 	add	x0, x0, #0x4
    1098:	d51c4020 	msr	elr_el2, x0
}
    109c:	d65f03c0 	ret

00000000000010a0 <handle_exception_irq_lel>:

static bool handle_exception_irq_lel(struct rec *rec, struct rmi_rec_exit *rec_exit)
{
	(void)rec;

	rec_exit->exit_reason = RMI_EXIT_IRQ;
    10a0:	d2800020 	mov	x0, #0x1                   	// #1
    10a4:	f9000020 	str	x0, [x1]
	/*
	 * With GIC all virtual interrupt programming
	 * must go via the NS hypervisor.
	 */
	return false;
}
    10a8:	52800000 	mov	w0, #0x0                   	// #0
    10ac:	d65f03c0 	ret

00000000000010b0 <system_abort>:
{
    10b0:	d503233f 	paciasp
    10b4:	f81f0ffe 	str	x30, [sp, #-16]!
	assert(false);
    10b8:	f0000143 	adrp	x3, 2c000 <rmm_text_end>
    10bc:	91010063 	add	x3, x3, #0x40
    10c0:	f0000142 	adrp	x2, 2c000 <rmm_text_end>
    10c4:	91096042 	add	x2, x2, #0x258
    10c8:	52800461 	mov	w1, #0x23                  	// #35
    10cc:	f0000140 	adrp	x0, 2c000 <rmm_text_end>
    10d0:	91012000 	add	x0, x0, #0x48
    10d4:	94002e96 	bl	cb2c <__assert_func>

00000000000010d8 <get_dabt_write_value>:
#include <stdbool.h>
#include <utils_def.h>

static inline unsigned int esr_srt(unsigned long esr)
{
	return (unsigned int)EXTRACT(ESR_EL2_ABORT_SRT, esr);
    10d8:	53105022 	ubfx	w2, w1, #16, #5
	if (rt == 31U) {
    10dc:	71007c5f 	cmp	w2, #0x1f
    10e0:	54000400 	b.eq	1160 <get_dabt_write_value+0x88>  // b.none
	return rec->regs[rt] & access_mask(esr);
    10e4:	2a0203e2 	mov	w2, w2
    10e8:	91000842 	add	x2, x2, #0x2
    10ec:	8b020c00 	add	x0, x0, x2, lsl #3
    10f0:	f9400400 	ldr	x0, [x0, #8]
	return ((esr & ESR_EL2_ABORT_SF_BIT) != 0UL);
}

static inline unsigned int esr_sas(unsigned long esr)
{
	return (unsigned int)EXTRACT(ESR_EL2_ABORT_SAS, esr);
    10f4:	53165c21 	ubfx	w1, w1, #22, #2
	}
}

static inline unsigned long access_mask(unsigned long esr)
{
	switch (esr_sas(esr)) {
    10f8:	7100043f 	cmp	w1, #0x1
    10fc:	54000240 	b.eq	1144 <get_dabt_write_value+0x6c>  // b.none
    1100:	7100083f 	cmp	w1, #0x2
    1104:	54000240 	b.eq	114c <get_dabt_write_value+0x74>  // b.none
    1108:	34000281 	cbz	w1, 1158 <get_dabt_write_value+0x80>
	case ESR_EL2_ABORT_SAS_HWORD_VAL:
		return 0xffffUL;
	case ESR_EL2_ABORT_SAS_WORD_VAL:
		return 0xffffffffUL;
	default:
		assert(esr_sas(esr) == ESR_EL2_ABORT_SAS_DWORD_VAL);
    110c:	71000c3f 	cmp	w1, #0x3
    1110:	54000061 	b.ne	111c <get_dabt_write_value+0x44>  // b.any
		return ~(0UL);
    1114:	92800001 	mov	x1, #0xffffffffffffffff    	// #-1
    1118:	1400000e 	b	1150 <get_dabt_write_value+0x78>
{
    111c:	d503233f 	paciasp
    1120:	f81f0ffe 	str	x30, [sp, #-16]!
		assert(esr_sas(esr) == ESR_EL2_ABORT_SAS_DWORD_VAL);
    1124:	f0000143 	adrp	x3, 2c000 <rmm_text_end>
    1128:	9101e063 	add	x3, x3, #0x78
    112c:	f0000142 	adrp	x2, 2c000 <rmm_text_end>
    1130:	9108e042 	add	x2, x2, #0x238
    1134:	52800801 	mov	w1, #0x40                  	// #64
    1138:	f0000140 	adrp	x0, 2c000 <rmm_text_end>
    113c:	9102a000 	add	x0, x0, #0xa8
    1140:	94002e7b 	bl	cb2c <__assert_func>
		return 0xffffUL;
    1144:	d29fffe1 	mov	x1, #0xffff                	// #65535
    1148:	14000002 	b	1150 <get_dabt_write_value+0x78>
		return 0xffffffffUL;
    114c:	b2407fe1 	mov	x1, #0xffffffff            	// #4294967295
	return rec->regs[rt] & access_mask(esr);
    1150:	8a010000 	and	x0, x0, x1
    1154:	d65f03c0 	ret
	switch (esr_sas(esr)) {
    1158:	d2801fe1 	mov	x1, #0xff                  	// #255
    115c:	17fffffd 	b	1150 <get_dabt_write_value+0x78>
		return 0UL;
    1160:	d2800000 	mov	x0, #0x0                   	// #0
}
    1164:	d65f03c0 	ret

0000000000001168 <handle_simd_exception>:
{
    1168:	d503233f 	paciasp
    116c:	a9bf7bf3 	stp	x19, x30, [sp, #-16]!
    1170:	aa0003f3 	mov	x19, x0
	unsigned long esr_el2_ec = esr & MASK(ESR_EL2_EC);
    1174:	92661421 	and	x1, x1, #0xfc000000
	if ((esr_el2_ec == ESR_EL2_EC_SVE) && !rec->realm_info.simd_cfg.sve_en) {
    1178:	d2ac8000 	mov	x0, #0x64000000            	// #1677721600
    117c:	eb00003f 	cmp	x1, x0
    1180:	54000380 	b.eq	11f0 <handle_simd_exception+0x88>  // b.none
	if ((esr_el2_ec == ESR_EL2_EC_SME) &&
    1184:	d2ae8000 	mov	x0, #0x74000000            	// #1946157056
    1188:	eb00003f 	cmp	x1, x0
    118c:	540003a0 	b.eq	1200 <handle_simd_exception+0x98>  // b.none
	assert(rec->active_simd_ctx != rec->aux_data.simd_ctx);
    1190:	f9427e60 	ldr	x0, [x19, #1272]
    1194:	f9426661 	ldr	x1, [x19, #1224]
    1198:	eb01001f 	cmp	x0, x1
    119c:	54000420 	b.eq	1220 <handle_simd_exception+0xb8>  // b.none
	rec->active_simd_ctx = simd_context_switch(rec->active_simd_ctx,
    11a0:	9400a8e4 	bl	2b530 <simd_context_switch>
    11a4:	f9027e60 	str	x0, [x19, #1272]
	SIMD_ENABLE_CPTR_FLAGS(&rec->realm_info.simd_cfg, rec->sysregs.cptr_el2);
    11a8:	f941c660 	ldr	x0, [x19, #904]
    11ac:	92a06661 	mov	x1, #0xfffffffffcccffff    	// #-53673985
    11b0:	8a010000 	and	x0, x0, x1
    11b4:	f901c660 	str	x0, [x19, #904]
    11b8:	b26c0400 	orr	x0, x0, #0x300000
    11bc:	f901c660 	str	x0, [x19, #904]
    11c0:	39501261 	ldrb	w1, [x19, #1028]
    11c4:	34000061 	cbz	w1, 11d0 <handle_simd_exception+0x68>
    11c8:	b2700400 	orr	x0, x0, #0x30000
    11cc:	f901c660 	str	x0, [x19, #904]
    11d0:	39503260 	ldrb	w0, [x19, #1036]
    11d4:	34000080 	cbz	w0, 11e4 <handle_simd_exception+0x7c>
    11d8:	f941c660 	ldr	x0, [x19, #904]
    11dc:	b2680400 	orr	x0, x0, #0x3000000
    11e0:	f901c660 	str	x0, [x19, #904]
}
    11e4:	52800020 	mov	w0, #0x1                   	// #1
    11e8:	a8c17bf3 	ldp	x19, x30, [sp], #16
    11ec:	d65f0bff 	retaa
	if ((esr_el2_ec == ESR_EL2_EC_SVE) && !rec->realm_info.simd_cfg.sve_en) {
    11f0:	39501260 	ldrb	w0, [x19, #1028]
    11f4:	35fffc80 	cbnz	w0, 1184 <handle_simd_exception+0x1c>
		realm_inject_undef_abort();
    11f8:	9400050b 	bl	2624 <realm_inject_undef_abort>
		return true;
    11fc:	17fffffa 	b	11e4 <handle_simd_exception+0x7c>
	    (!rec->realm_info.simd_cfg.sve_en ||
    1200:	39501260 	ldrb	w0, [x19, #1028]
	if ((esr_el2_ec == ESR_EL2_EC_SME) &&
    1204:	340000a0 	cbz	w0, 1218 <handle_simd_exception+0xb0>
	     (rec->active_simd_ctx == rec->aux_data.simd_ctx))) {
    1208:	f9427e61 	ldr	x1, [x19, #1272]
    120c:	f9426660 	ldr	x0, [x19, #1224]
	    (!rec->realm_info.simd_cfg.sve_en ||
    1210:	eb00003f 	cmp	x1, x0
    1214:	54fffbe1 	b.ne	1190 <handle_simd_exception+0x28>  // b.any
		realm_inject_undef_abort();
    1218:	94000503 	bl	2624 <realm_inject_undef_abort>
		return true;
    121c:	17fffff2 	b	11e4 <handle_simd_exception+0x7c>
	assert(rec->active_simd_ctx != rec->aux_data.simd_ctx);
    1220:	f0000143 	adrp	x3, 2c000 <rmm_text_end>
    1224:	91036063 	add	x3, x3, #0xd8
    1228:	f0000142 	adrp	x2, 2c000 <rmm_text_end>
    122c:	91088042 	add	x2, x2, #0x220
    1230:	52802a01 	mov	w1, #0x150                 	// #336
    1234:	f0000140 	adrp	x0, 2c000 <rmm_text_end>
    1238:	91012000 	add	x0, x0, #0x48
    123c:	94002e3c 	bl	cb2c <__assert_func>

0000000000001240 <handle_sync_external_abort>:
{
    1240:	d503233f 	paciasp
    1244:	a9bd53f3 	stp	x19, x20, [sp, #-48]!
    1248:	a9015bf5 	stp	x21, x22, [sp, #16]
    124c:	f90013fe 	str	x30, [sp, #32]
    1250:	aa0103f5 	mov	x21, x1
    1254:	aa0203f3 	mov	x19, x2
	unsigned long set = esr & MASK(ESR_EL2_ABORT_SET);
    1258:	92750456 	and	x22, x2, #0x1800
	if (!fsc_is_external_abort(fsc)) {
    125c:	92401440 	and	x0, x2, #0x3f
    1260:	97ffff81 	bl	1064 <fsc_is_external_abort>
    1264:	2a0003f4 	mov	w20, w0
    1268:	12001c00 	and	w0, w0, #0xff
    126c:	340002a0 	cbz	w0, 12c0 <handle_sync_external_abort+0x80>
	switch (set) {
    1270:	f14006df 	cmp	x22, #0x1, lsl #12
    1274:	54000300 	b.eq	12d4 <handle_sync_external_abort+0x94>  // b.none
    1278:	d2830000 	mov	x0, #0x1800                	// #6144
    127c:	eb0002df 	cmp	x22, x0
    1280:	54000180 	b.eq	12b0 <handle_sync_external_abort+0x70>  // b.none
    1284:	b4000136 	cbz	x22, 12a8 <handle_sync_external_abort+0x68>
		assert(false);
    1288:	f0000143 	adrp	x3, 2c000 <rmm_text_end>
    128c:	91010063 	add	x3, x3, #0x40
    1290:	f0000142 	adrp	x2, 2c000 <rmm_text_end>
    1294:	9109a042 	add	x2, x2, #0x268
    1298:	528014c1 	mov	w1, #0xa6                  	// #166
    129c:	f0000140 	adrp	x0, 2c000 <rmm_text_end>
    12a0:	91012000 	add	x0, x0, #0x48
    12a4:	94002e22 	bl	cb2c <__assert_func>
		inject_sync_idabort(ESR_EL2_ABORT_FSC_SEA);
    12a8:	d2800200 	mov	x0, #0x10                  	// #16
    12ac:	940004aa 	bl	2554 <inject_sync_idabort>
		rec_exit->esr = esr & ESR_NONEMULATED_ABORT_MASK;
    12b0:	d283c7e0 	mov	x0, #0x1e3f                	// #7743
    12b4:	f2bf8000 	movk	x0, #0xfc00, lsl #16
    12b8:	8a000273 	and	x19, x19, x0
    12bc:	f90082b3 	str	x19, [x21, #256]
}
    12c0:	2a1403e0 	mov	w0, w20
    12c4:	a9415bf5 	ldp	x21, x22, [sp, #16]
    12c8:	f94013fe 	ldr	x30, [sp, #32]
    12cc:	a8c353f3 	ldp	x19, x20, [sp], #48
    12d0:	d65f0bff 	retaa
		system_abort();
    12d4:	97ffff77 	bl	10b0 <system_abort>

00000000000012d8 <ipa_is_empty>:
{
    12d8:	d503233f 	paciasp
    12dc:	f81d0ffe 	str	x30, [sp, #-48]!
    12e0:	aa0003e3 	mov	x3, x0
	assert(GRANULE_ALIGNED(ipa));
    12e4:	f2402c1f 	tst	x0, #0xfff
    12e8:	54000181 	b.ne	1318 <ipa_is_empty+0x40>  // b.any
    12ec:	aa0103e0 	mov	x0, x1
	walk_status = realm_ipa_to_pa(rec, ipa, &s2_walk);
    12f0:	910043e2 	add	x2, sp, #0x10
    12f4:	aa0303e1 	mov	x1, x3
    12f8:	94002866 	bl	b490 <realm_ipa_to_pa>
	if ((walk_status != WALK_INVALID_PARAMS) &&
    12fc:	7100041f 	cmp	w0, #0x1
    1300:	540001c0 	b.eq	1338 <ipa_is_empty+0x60>  // b.none
	    (s2_walk.ripas_val == RIPAS_EMPTY)) {
    1304:	b94023e0 	ldr	w0, [sp, #32]
	if ((walk_status != WALK_INVALID_PARAMS) &&
    1308:	340001c0 	cbz	w0, 1340 <ipa_is_empty+0x68>
	return false;
    130c:	52800000 	mov	w0, #0x0                   	// #0
}
    1310:	f84307fe 	ldr	x30, [sp], #48
    1314:	d65f0bff 	retaa
	assert(GRANULE_ALIGNED(ipa));
    1318:	f0000143 	adrp	x3, 2c000 <rmm_text_end>
    131c:	91042063 	add	x3, x3, #0x108
    1320:	f0000142 	adrp	x2, 2c000 <rmm_text_end>
    1324:	91092042 	add	x2, x2, #0x248
    1328:	52800b01 	mov	w1, #0x58                  	// #88
    132c:	f0000140 	adrp	x0, 2c000 <rmm_text_end>
    1330:	91012000 	add	x0, x0, #0x48
    1334:	94002dfe 	bl	cb2c <__assert_func>
	return false;
    1338:	52800000 	mov	w0, #0x0                   	// #0
    133c:	17fffff5 	b	1310 <ipa_is_empty+0x38>
		return true;
    1340:	52800020 	mov	w0, #0x1                   	// #1
    1344:	17fffff3 	b	1310 <ipa_is_empty+0x38>

0000000000001348 <handle_data_abort>:
{
    1348:	d503233f 	paciasp
    134c:	a9bc53f3 	stp	x19, x20, [sp, #-64]!
    1350:	a9015bf5 	stp	x21, x22, [sp, #16]
    1354:	a9027bf7 	stp	x23, x30, [sp, #32]
    1358:	aa0003f6 	mov	x22, x0
    135c:	aa0103f3 	mov	x19, x1
    1360:	f9001fe2 	str	x2, [sp, #56]
DEFINE_SYSREG_RW_FUNCS(afsr1_el1)
DEFINE_SYSREG_RW_FUNCS(afsr1_el2)

DEFINE_SYSREG_RW_FUNCS(far_el1)
DEFINE_SYSREG_RW_FUNCS(far_el2)
DEFINE_SYSREG_RW_FUNCS(hpfar_el2)
    1364:	d53c6097 	mrs	x23, hpfar_el2
	unsigned long fipa = (hpfar & MASK(HPFAR_EL2_FIPA)) << HPFAR_EL2_FIPA_OFFSET;
    1368:	d378dee3 	lsl	x3, x23, #8
    136c:	92749c74 	and	x20, x3, #0xffffffffff000
	if (handle_sync_external_abort(rec, rec_exit, esr)) {
    1370:	97ffffb4 	bl	1240 <handle_sync_external_abort>
    1374:	12001c02 	and	w2, w0, #0xff
    1378:	340000e2 	cbz	w2, 1394 <handle_data_abort+0x4c>
		return false;
    137c:	52800015 	mov	w21, #0x0                   	// #0
}
    1380:	2a1503e0 	mov	w0, w21
    1384:	a9415bf5 	ldp	x21, x22, [sp, #16]
    1388:	a9427bf7 	ldp	x23, x30, [sp, #32]
    138c:	a8c453f3 	ldp	x19, x20, [sp], #64
    1390:	d65f0bff 	retaa
	if (ipa_is_empty(fipa, rec)) {
    1394:	aa1603e1 	mov	x1, x22
    1398:	aa1403e0 	mov	x0, x20
    139c:	97ffffcf 	bl	12d8 <ipa_is_empty>
    13a0:	72001c15 	ands	w21, w0, #0xff
    13a4:	540002a1 	b.ne	13f8 <handle_data_abort+0xb0>  // b.any
	if (fixup_aarch32_data_abort(rec, &esr) ||
    13a8:	9100e3e1 	add	x1, sp, #0x38
    13ac:	aa1603e0 	mov	x0, x22
    13b0:	97ffff1e 	bl	1028 <fixup_aarch32_data_abort>
    13b4:	12001c00 	and	w0, w0, #0xff
    13b8:	35000260 	cbnz	w0, 1404 <handle_data_abort+0xbc>
	    access_in_rec_par(rec, fipa)) {
    13bc:	aa1403e1 	mov	x1, x20
    13c0:	aa1603e0 	mov	x0, x22
    13c4:	97ffff22 	bl	104c <access_in_rec_par>
    13c8:	12001c00 	and	w0, w0, #0xff
	if (fixup_aarch32_data_abort(rec, &esr) ||
    13cc:	350001c0 	cbnz	w0, 1404 <handle_data_abort+0xbc>
	if (esr_is_write(esr)) {
    13d0:	f9401ff4 	ldr	x20, [sp, #56]
    13d4:	927a0280 	and	x0, x20, #0x40
    13d8:	37300314 	tbnz	w20, #6, 1438 <handle_data_abort+0xf0>
DEFINE_SYSREG_RW_FUNCS(far_el2)
    13dc:	d53c6001 	mrs	x1, far_el2
	far = read_far_el2() & ~GRANULE_MASK;
    13e0:	92402c21 	and	x1, x1, #0xfff
	esr &= ESR_EMULATED_ABORT_MASK;
    13e4:	d293cfe2 	mov	x2, #0x9e7f                	// #40575
    13e8:	f2bfb802 	movk	x2, #0xfdc0, lsl #16
    13ec:	8a020294 	and	x20, x20, x2
    13f0:	f9001ff4 	str	x20, [sp, #56]
    13f4:	1400000b 	b	1420 <handle_data_abort+0xd8>
		inject_sync_idabort(ESR_EL2_ABORT_FSC_SEA);
    13f8:	d2800200 	mov	x0, #0x10                  	// #16
    13fc:	94000456 	bl	2554 <inject_sync_idabort>
		return true;
    1400:	17ffffe0 	b	1380 <handle_data_abort+0x38>
		esr &= ESR_NONEMULATED_ABORT_MASK;
    1404:	f9401fe0 	ldr	x0, [sp, #56]
    1408:	d283c7e1 	mov	x1, #0x1e3f                	// #7743
    140c:	f2bf8001 	movk	x1, #0xfc00, lsl #16
    1410:	8a010000 	and	x0, x0, x1
    1414:	f9001fe0 	str	x0, [sp, #56]
	unsigned long write_val = 0UL;
    1418:	d2800000 	mov	x0, #0x0                   	// #0
	unsigned long far = 0UL;
    141c:	d2800001 	mov	x1, #0x0                   	// #0
	rec_exit->esr = esr;
    1420:	f9401fe2 	ldr	x2, [sp, #56]
    1424:	f9008262 	str	x2, [x19, #256]
	rec_exit->far = far;
    1428:	f9008661 	str	x1, [x19, #264]
	rec_exit->hpfar = hpfar;
    142c:	f9008a77 	str	x23, [x19, #272]
	rec_exit->gprs[0] = write_val;
    1430:	f9010260 	str	x0, [x19, #512]
	return false;
    1434:	17ffffd3 	b	1380 <handle_data_abort+0x38>
		write_val = get_dabt_write_value(rec, esr);
    1438:	aa1403e1 	mov	x1, x20
    143c:	aa1603e0 	mov	x0, x22
    1440:	97ffff26 	bl	10d8 <get_dabt_write_value>
    1444:	17ffffe6 	b	13dc <handle_data_abort+0x94>

0000000000001448 <handle_exception_serror_lel>:
{
    1448:	d503233f 	paciasp
    144c:	a9be53f3 	stp	x19, x20, [sp, #-32]!
    1450:	f9000bfe 	str	x30, [sp, #16]
DEFINE_SYSREG_RW_FUNCS(esr_el2)
    1454:	d53c5213 	mrs	x19, esr_el2
	if ((esr & ESR_EL2_SERROR_IDS_BIT) != 0UL) {
    1458:	37c002d3 	tbnz	w19, #24, 14b0 <handle_exception_serror_lel+0x68>
    145c:	aa0103f4 	mov	x20, x1
	if ((esr & MASK(ESR_EL2_SERROR_DFSC)) != ESR_EL2_SERROR_DFSC_ASYNC) {
    1460:	92401661 	and	x1, x19, #0x3f
    1464:	f100043f 	cmp	x1, #0x1
    1468:	54000261 	b.ne	14b4 <handle_exception_serror_lel+0x6c>  // b.any
	switch (esr & MASK(ESR_EL2_SERROR_AET)) {
    146c:	92760a62 	and	x2, x19, #0x1c00
    1470:	f120005f 	cmp	x2, #0x800
    1474:	540000e0 	b.eq	1490 <handle_exception_serror_lel+0x48>  // b.none
    1478:	54000209 	b.ls	14b8 <handle_exception_serror_lel+0x70>  // b.plast
    147c:	f130005f 	cmp	x2, #0xc00
    1480:	54000220 	b.eq	14c4 <handle_exception_serror_lel+0x7c>  // b.none
    1484:	d2830000 	mov	x0, #0x1800                	// #6144
    1488:	eb00005f 	cmp	x2, x0
    148c:	54000241 	b.ne	14d4 <handle_exception_serror_lel+0x8c>  // b.any
		rec_exit->esr = esr & ESR_SERROR_MASK;
    1490:	d283c7e0 	mov	x0, #0x1e3f                	// #7743
    1494:	f2a02000 	movk	x0, #0x100, lsl #16
    1498:	8a000273 	and	x19, x19, x0
    149c:	f9008293 	str	x19, [x20, #256]
}
    14a0:	52800000 	mov	w0, #0x0                   	// #0
    14a4:	f9400bfe 	ldr	x30, [sp, #16]
    14a8:	a8c253f3 	ldp	x19, x20, [sp], #32
    14ac:	d65f0bff 	retaa
		system_abort();
    14b0:	97ffff00 	bl	10b0 <system_abort>
		system_abort();
    14b4:	97fffeff 	bl	10b0 <system_abort>
	switch (esr & MASK(ESR_EL2_SERROR_AET)) {
    14b8:	b40000c2 	cbz	x2, 14d0 <handle_exception_serror_lel+0x88>
    14bc:	f110005f 	cmp	x2, #0x400
    14c0:	540000a1 	b.ne	14d4 <handle_exception_serror_lel+0x8c>  // b.any
		inject_serror(rec, esr);
    14c4:	aa1303e1 	mov	x1, x19
    14c8:	9400055c 	bl	2a38 <inject_serror>
    14cc:	17fffff1 	b	1490 <handle_exception_serror_lel+0x48>
		system_abort();
    14d0:	97fffef8 	bl	10b0 <system_abort>
		assert(false);
    14d4:	f0000143 	adrp	x3, 2c000 <rmm_text_end>
    14d8:	91010063 	add	x3, x3, #0x40
    14dc:	f0000142 	adrp	x2, 2c000 <rmm_text_end>
    14e0:	91080042 	add	x2, x2, #0x200
    14e4:	52804861 	mov	w1, #0x243                 	// #579
    14e8:	f0000140 	adrp	x0, 2c000 <rmm_text_end>
    14ec:	91012000 	add	x0, x0, #0x48
    14f0:	94002d8f 	bl	cb2c <__assert_func>

00000000000014f4 <rmm_log>:
	do {				\
	} while (true)

__attribute__((__format__(__printf__, 1, 2)))
static inline void rmm_log(const char *fmt, ...)
{
    14f4:	d503233f 	paciasp
    14f8:	f8170ffe 	str	x30, [sp, #-144]!
    14fc:	f9002fe1 	str	x1, [sp, #88]
    1500:	f90033e2 	str	x2, [sp, #96]
    1504:	f90037e3 	str	x3, [sp, #104]
    1508:	f9003be4 	str	x4, [sp, #112]
    150c:	f9003fe5 	str	x5, [sp, #120]
    1510:	f90043e6 	str	x6, [sp, #128]
    1514:	f90047e7 	str	x7, [sp, #136]
	va_list args;

	va_start(args, fmt);
    1518:	910243e1 	add	x1, sp, #0x90
    151c:	f9001be1 	str	x1, [sp, #48]
    1520:	f9001fe1 	str	x1, [sp, #56]
    1524:	910143e1 	add	x1, sp, #0x50
    1528:	f90023e1 	str	x1, [sp, #64]
    152c:	128006e1 	mov	w1, #0xffffffc8            	// #-56
    1530:	b9004be1 	str	w1, [sp, #72]
    1534:	b9004fff 	str	wzr, [sp, #76]
	(void)vprintf(fmt, args);
    1538:	a9430fe2 	ldp	x2, x3, [sp, #48]
    153c:	a9010fe2 	stp	x2, x3, [sp, #16]
    1540:	a9440fe2 	ldp	x2, x3, [sp, #64]
    1544:	a9020fe2 	stp	x2, x3, [sp, #32]
    1548:	910043e1 	add	x1, sp, #0x10
    154c:	940031c6 	bl	dc64 <vprintf_>
	va_end(args);
}
    1550:	f84907fe 	ldr	x30, [sp], #144
    1554:	d65f0bff 	retaa

0000000000001558 <handle_instruction_abort>:
{
    1558:	d503233f 	paciasp
    155c:	a9bc53f3 	stp	x19, x20, [sp, #-64]!
    1560:	a9015bf5 	stp	x21, x22, [sp, #16]
    1564:	a90263f7 	stp	x23, x24, [sp, #32]
    1568:	a9037bf9 	stp	x25, x30, [sp, #48]
    156c:	aa0003f5 	mov	x21, x0
    1570:	aa0103f6 	mov	x22, x1
    1574:	aa0203f3 	mov	x19, x2
	unsigned long fsc = esr & MASK(ESR_EL2_ABORT_FSC);
    1578:	92401459 	and	x25, x2, #0x3f
	unsigned long fsc_type = fsc & ~MASK(ESR_EL2_ABORT_FSC_LEVEL);
    157c:	927e0c58 	and	x24, x2, #0x3c
DEFINE_SYSREG_RW_FUNCS(hpfar_el2)
    1580:	d53c6097 	mrs	x23, hpfar_el2
	if (handle_sync_external_abort(rec, rec_exit, esr)) {
    1584:	97ffff2f 	bl	1240 <handle_sync_external_abort>
    1588:	12001c00 	and	w0, w0, #0xff
    158c:	35000620 	cbnz	w0, 1650 <handle_instruction_abort+0xf8>
    1590:	d378def4 	lsl	x20, x23, #8
    1594:	92749e94 	and	x20, x20, #0xffffffffff000
	if (!access_in_rec_par(rec, fipa) || ipa_is_empty(fipa, rec)) {
    1598:	aa1403e1 	mov	x1, x20
    159c:	aa1503e0 	mov	x0, x21
    15a0:	97fffeab 	bl	104c <access_in_rec_par>
    15a4:	12001c00 	and	w0, w0, #0xff
    15a8:	340001c0 	cbz	w0, 15e0 <handle_instruction_abort+0x88>
    15ac:	aa1503e1 	mov	x1, x21
    15b0:	aa1403e0 	mov	x0, x20
    15b4:	97ffff49 	bl	12d8 <ipa_is_empty>
    15b8:	72001c14 	ands	w20, w0, #0xff
    15bc:	54000121 	b.ne	15e0 <handle_instruction_abort+0x88>  // b.any
	if (fsc_type != ESR_EL2_ABORT_FSC_TRANSLATION_FAULT) {
    15c0:	f100131f 	cmp	x24, #0x4
    15c4:	54000201 	b.ne	1604 <handle_instruction_abort+0xac>  // b.any
	rec_exit->hpfar = hpfar;
    15c8:	f9008ad7 	str	x23, [x22, #272]
	rec_exit->esr = esr & ESR_NONEMULATED_ABORT_MASK;
    15cc:	d283c7e0 	mov	x0, #0x1e3f                	// #7743
    15d0:	f2bf8000 	movk	x0, #0xfc00, lsl #16
    15d4:	8a000273 	and	x19, x19, x0
    15d8:	f90082d3 	str	x19, [x22, #256]
	return false;
    15dc:	14000004 	b	15ec <handle_instruction_abort+0x94>
		inject_sync_idabort(ESR_EL2_ABORT_FSC_SEA);
    15e0:	d2800200 	mov	x0, #0x10                  	// #16
    15e4:	940003dc 	bl	2554 <inject_sync_idabort>
		return true;
    15e8:	52800034 	mov	w20, #0x1                   	// #1
}
    15ec:	2a1403e0 	mov	w0, w20
    15f0:	a9415bf5 	ldp	x21, x22, [sp, #16]
    15f4:	a94263f7 	ldp	x23, x24, [sp, #32]
    15f8:	a9437bf9 	ldp	x25, x30, [sp, #48]
    15fc:	a8c453f3 	ldp	x19, x20, [sp], #64
    1600:	d65f0bff 	retaa
DEFINE_SYSREG_RW_FUNCS(far_el2)
    1604:	d53c6013 	mrs	x19, far_el2
		ERROR("Unhandled instruction abort:\n");
    1608:	f0000140 	adrp	x0, 2c000 <rmm_text_end>
    160c:	91048000 	add	x0, x0, #0x120
    1610:	97ffffb9 	bl	14f4 <rmm_log>
		ERROR("    FSC: %12s0x%02lx\n", " ", fsc);
    1614:	aa1903e2 	mov	x2, x25
    1618:	f0000161 	adrp	x1, 30000 <secp384r1_T_19_X+0x18>
    161c:	911e6021 	add	x1, x1, #0x798
    1620:	f0000140 	adrp	x0, 2c000 <rmm_text_end>
    1624:	91050000 	add	x0, x0, #0x140
    1628:	97ffffb3 	bl	14f4 <rmm_log>
		ERROR("    FAR: %16lx\n", far);
    162c:	aa1303e1 	mov	x1, x19
    1630:	f0000140 	adrp	x0, 2c000 <rmm_text_end>
    1634:	91056000 	add	x0, x0, #0x158
    1638:	97ffffaf 	bl	14f4 <rmm_log>
		ERROR("  HPFAR: %16lx\n", hpfar);
    163c:	aa1703e1 	mov	x1, x23
    1640:	f0000140 	adrp	x0, 2c000 <rmm_text_end>
    1644:	9105a000 	add	x0, x0, #0x168
    1648:	97ffffab 	bl	14f4 <rmm_log>
		return false;
    164c:	17ffffe8 	b	15ec <handle_instruction_abort+0x94>
		return false;
    1650:	52800014 	mov	w20, #0x0                   	// #0
    1654:	17ffffe6 	b	15ec <handle_instruction_abort+0x94>

0000000000001658 <emulate_stage2_data_abort>:
{
    1658:	d503245f 	bti	c
	unsigned long fipa = rec->regs[1];
    165c:	f9401000 	ldr	x0, [x0, #32]
	assert(rtt_level <= (unsigned long)RTT_PAGE_LEVEL);
    1660:	f1000c5f 	cmp	x2, #0x3
    1664:	54000148 	b.hi	168c <emulate_stage2_data_abort+0x34>  // b.pmore
			(ESR_EL2_ABORT_FSC_TRANSLATION_FAULT_L0 + rtt_level));
    1668:	91001042 	add	x2, x2, #0x4
	rec_exit->esr = (ESR_EL2_EC_DATA_ABORT |
    166c:	d2b20003 	mov	x3, #0x90000000            	// #2415919104
    1670:	aa030042 	orr	x2, x2, x3
    1674:	f9008022 	str	x2, [x1, #256]
	rec_exit->far = 0UL;
    1678:	f900843f 	str	xzr, [x1, #264]
	rec_exit->hpfar = fipa >> HPFAR_EL2_FIPA_OFFSET;
    167c:	d348fc00 	lsr	x0, x0, #8
    1680:	f9008820 	str	x0, [x1, #272]
	rec_exit->exit_reason = RMI_EXIT_SYNC;
    1684:	f900003f 	str	xzr, [x1]
    1688:	d65f03c0 	ret
{
    168c:	d503233f 	paciasp
    1690:	f81f0ffe 	str	x30, [sp, #-16]!
	assert(rtt_level <= (unsigned long)RTT_PAGE_LEVEL);
    1694:	f0000143 	adrp	x3, 2c000 <rmm_text_end>
    1698:	9105e063 	add	x3, x3, #0x178
    169c:	f0000142 	adrp	x2, 2c000 <rmm_text_end>
    16a0:	910a2042 	add	x2, x2, #0x288
    16a4:	52801641 	mov	w1, #0xb2                  	// #178
    16a8:	f0000140 	adrp	x0, 2c000 <rmm_text_end>
    16ac:	91012000 	add	x0, x0, #0x48
    16b0:	94002d1f 	bl	cb2c <__assert_func>

00000000000016b4 <handle_realm_rsi>:
{
    16b4:	d503233f 	paciasp
    16b8:	a9b553f3 	stp	x19, x20, [sp, #-176]!
    16bc:	a9017bf5 	stp	x21, x30, [sp, #16]
    16c0:	aa0003f4 	mov	x20, x0
    16c4:	aa0103f5 	mov	x21, x1
	struct rsi_result res = { 0 };
    16c8:	f9003fff 	str	xzr, [sp, #120]
    16cc:	f90043ff 	str	xzr, [sp, #128]
    16d0:	f90047ff 	str	xzr, [sp, #136]
    16d4:	f9004bff 	str	xzr, [sp, #144]
    16d8:	f9004fff 	str	xzr, [sp, #152]
    16dc:	f90053ff 	str	xzr, [sp, #160]
    16e0:	f90057ff 	str	xzr, [sp, #168]
	unsigned int function_id = (unsigned int)rec->regs[0];
    16e4:	f9400c13 	ldr	x19, [x0, #24]
	RSI_LOG_SET(rec->regs);
    16e8:	f9401000 	ldr	x0, [x0, #32]
    16ec:	f90017e0 	str	x0, [sp, #40]
    16f0:	f9401680 	ldr	x0, [x20, #40]
    16f4:	f9001be0 	str	x0, [sp, #48]
    16f8:	f9401a80 	ldr	x0, [x20, #48]
    16fc:	f9001fe0 	str	x0, [sp, #56]
    1700:	f9401e80 	ldr	x0, [x20, #56]
    1704:	f90023e0 	str	x0, [sp, #64]
    1708:	f9402280 	ldr	x0, [x20, #64]
    170c:	f90027e0 	str	x0, [sp, #72]
    1710:	f9402680 	ldr	x0, [x20, #72]
    1714:	f9002be0 	str	x0, [sp, #80]
    1718:	f9402a80 	ldr	x0, [x20, #80]
    171c:	f9002fe0 	str	x0, [sp, #88]
    1720:	f9402e80 	ldr	x0, [x20, #88]
    1724:	f90033e0 	str	x0, [sp, #96]
    1728:	f9403280 	ldr	x0, [x20, #96]
    172c:	f90037e0 	str	x0, [sp, #104]
    1730:	f9403680 	ldr	x0, [x20, #104]
    1734:	f9003be0 	str	x0, [sp, #112]
	for (i = 4U; i < SMC_RESULT_REGS; ++i) {
    1738:	52800080 	mov	w0, #0x4                   	// #4
    173c:	7100101f 	cmp	w0, #0x4
    1740:	54000349 	b.ls	17a8 <handle_realm_rsi+0xf4>  // b.plast
	function_id &= ~SMC_SVE_HINT;
    1744:	120f7a73 	and	w19, w19, #0xfffeffff
	rmm_log("\n\n\n\n\n\n\n ### DEBUG ###\n\n\n >> get rec -> MSK.= %lu\n\n", rec->MSK);
    1748:	f9428281 	ldr	x1, [x20, #1280]
    174c:	f0000140 	adrp	x0, 2c000 <rmm_text_end>
    1750:	9106a000 	add	x0, x0, #0x1a8
    1754:	97ffff68 	bl	14f4 <rmm_log>
	switch (function_id) {
    1758:	52803280 	mov	w0, #0x194                 	// #404
    175c:	72b88000 	movk	w0, #0xc400, lsl #16
    1760:	6b00027f 	cmp	w19, w0
    1764:	54000e00 	b.eq	1924 <handle_realm_rsi+0x270>  // b.none
    1768:	54000908 	b.hi	1888 <handle_realm_rsi+0x1d4>  // b.pmore
    176c:	51001000 	sub	w0, w0, #0x4
    1770:	6b00027f 	cmp	w19, w0
    1774:	54000d00 	b.eq	1914 <handle_realm_rsi+0x260>  // b.none
    1778:	54000289 	b.ls	17c8 <handle_realm_rsi+0x114>  // b.plast
    177c:	52803240 	mov	w0, #0x192                 	// #402
    1780:	72b88000 	movk	w0, #0xc400, lsl #16
    1784:	6b00027f 	cmp	w19, w0
    1788:	54000d60 	b.eq	1934 <handle_realm_rsi+0x280>  // b.none
    178c:	11000400 	add	w0, w0, #0x1
    1790:	6b00027f 	cmp	w19, w0
    1794:	540006c1 	b.ne	186c <handle_realm_rsi+0x1b8>  // b.any
		handle_rsi_measurement_extend(rec, &res);
    1798:	9101e3e1 	add	x1, sp, #0x78
    179c:	aa1403e0 	mov	x0, x20
    17a0:	94002b33 	bl	c46c <handle_rsi_measurement_extend>
		break;
    17a4:	14000018 	b	1804 <handle_realm_rsi+0x150>
		res.smc_res.x[i] = rec->regs[i];
    17a8:	2a0003e1 	mov	w1, w0
    17ac:	91000821 	add	x1, x1, #0x2
    17b0:	8b010e82 	add	x2, x20, x1, lsl #3
    17b4:	f9400443 	ldr	x3, [x2, #8]
    17b8:	9101e3e2 	add	x2, sp, #0x78
    17bc:	f8217843 	str	x3, [x2, x1, lsl #3]
	for (i = 4U; i < SMC_RESULT_REGS; ++i) {
    17c0:	11000400 	add	w0, w0, #0x1
    17c4:	17ffffde 	b	173c <handle_realm_rsi+0x88>
	switch (function_id) {
    17c8:	52800280 	mov	w0, #0x14                  	// #20
    17cc:	72b08000 	movk	w0, #0x8400, lsl #16
    17d0:	6b00027f 	cmp	w19, w0
    17d4:	540003a8 	b.hi	1848 <handle_realm_rsi+0x194>  // b.pmore
    17d8:	52b08000 	mov	w0, #0x84000000            	// #-2080374784
    17dc:	6b00027f 	cmp	w19, w0
    17e0:	540003c2 	b.cs	1858 <handle_realm_rsi+0x1a4>  // b.hs, b.nlast
    17e4:	52b00000 	mov	w0, #0x80000000            	// #-2147483648
    17e8:	6b00027f 	cmp	w19, w0
    17ec:	54000c61 	b.ne	1978 <handle_realm_rsi+0x2c4>  // b.any
		res.action = UPDATE_REC_RETURN_TO_REALM;
    17f0:	52800020 	mov	w0, #0x1                   	// #1
    17f4:	b9007be0 	str	w0, [sp, #120]
		res.smc_res.x[0] = SMCCC_VERSION_NUMBER;
    17f8:	d2800040 	mov	x0, #0x2                   	// #2
    17fc:	f2a00020 	movk	x0, #0x1, lsl #16
    1800:	f90047e0 	str	x0, [sp, #136]
	if (((unsigned int)res.action & FLAG_UPDATE_REC) != 0U) {
    1804:	b9407be1 	ldr	w1, [sp, #120]
    1808:	37000d61 	tbnz	w1, #0, 19b4 <handle_realm_rsi+0x300>
	if (((unsigned int)res.action & FLAG_STAGE_2_ABORT) != 0U) {
    180c:	36100d81 	tbz	w1, #2, 19bc <handle_realm_rsi+0x308>
		emulate_stage2_data_abort(rec, rec_exit, res.rtt_level);
    1810:	f94043e2 	ldr	x2, [sp, #128]
    1814:	aa1503e1 	mov	x1, x21
    1818:	aa1403e0 	mov	x0, x20
    181c:	97ffff8f 	bl	1658 <emulate_stage2_data_abort>
	RSI_LOG_EXIT(function_id, rec->regs);
    1820:	91006282 	add	x2, x20, #0x18
    1824:	9100a3e1 	add	x1, sp, #0x28
    1828:	2a1303e0 	mov	w0, w19
    182c:	94002410 	bl	a86c <rsi_log_on_exit>
	return (((unsigned int)res.action & FLAG_EXIT_TO_HOST) == 0U);
    1830:	b9407be0 	ldr	w0, [sp, #120]
    1834:	f27f001f 	tst	x0, #0x2
}
    1838:	1a9f17e0 	cset	w0, eq  // eq = none
    183c:	a9417bf5 	ldp	x21, x30, [sp, #16]
    1840:	a8cb53f3 	ldp	x19, x20, [sp], #176
    1844:	d65f0bff 	retaa
	switch (function_id) {
    1848:	52a78000 	mov	w0, #0x3c000000            	// #1006632960
    184c:	0b000260 	add	w0, w19, w0
    1850:	7100501f 	cmp	w0, #0x14
    1854:	54000928 	b.hi	1978 <handle_realm_rsi+0x2c4>  // b.pmore
		handle_psci(rec, rec_exit, &res);
    1858:	9101e3e2 	add	x2, sp, #0x78
    185c:	aa1503e1 	mov	x1, x21
    1860:	aa1403e0 	mov	x0, x20
    1864:	9400265c 	bl	b1d4 <handle_psci>
		break;
    1868:	17ffffe7 	b	1804 <handle_realm_rsi+0x150>
	switch (function_id) {
    186c:	51000800 	sub	w0, w0, #0x2
    1870:	6b00027f 	cmp	w19, w0
    1874:	54000821 	b.ne	1978 <handle_realm_rsi+0x2c4>  // b.any
		handle_rsi_features(rec, &res);
    1878:	9101e3e1 	add	x1, sp, #0x78
    187c:	aa1403e0 	mov	x0, x20
    1880:	9400223b 	bl	a16c <handle_rsi_features>
		break;
    1884:	17ffffe0 	b	1804 <handle_realm_rsi+0x150>
	switch (function_id) {
    1888:	52803300 	mov	w0, #0x198                 	// #408
    188c:	72b88000 	movk	w0, #0xc400, lsl #16
    1890:	6b00027f 	cmp	w19, w0
    1894:	54000600 	b.eq	1954 <handle_realm_rsi+0x2a0>  // b.none
    1898:	54000189 	b.ls	18c8 <handle_realm_rsi+0x214>  // b.plast
    189c:	52803320 	mov	w0, #0x199                 	// #409
    18a0:	72b88000 	movk	w0, #0xc400, lsl #16
    18a4:	6b00027f 	cmp	w19, w0
    18a8:	540005e0 	b.eq	1964 <handle_realm_rsi+0x2b0>  // b.none
    18ac:	11000400 	add	w0, w0, #0x1
    18b0:	6b00027f 	cmp	w19, w0
    18b4:	54000621 	b.ne	1978 <handle_realm_rsi+0x2c4>  // b.any
		handle_rsi_msk_call(rec, &res);
    18b8:	9101e3e1 	add	x1, sp, #0x78
    18bc:	aa1403e0 	mov	x0, x20
    18c0:	9400233e 	bl	a5b8 <handle_rsi_msk_call>
		break;	
    18c4:	17ffffd0 	b	1804 <handle_realm_rsi+0x150>
	switch (function_id) {
    18c8:	51000800 	sub	w0, w0, #0x2
    18cc:	6b00027f 	cmp	w19, w0
    18d0:	540003a0 	b.eq	1944 <handle_realm_rsi+0x290>  // b.none
    18d4:	11000400 	add	w0, w0, #0x1
    18d8:	6b00027f 	cmp	w19, w0
    18dc:	540000c1 	b.ne	18f4 <handle_realm_rsi+0x240>  // b.any
		handle_rsi_ipa_state_set(rec, rec_exit, &res);
    18e0:	9101e3e2 	add	x2, sp, #0x78
    18e4:	aa1503e1 	mov	x1, x21
    18e8:	aa1403e0 	mov	x0, x20
    18ec:	9400242d 	bl	a9a0 <handle_rsi_ipa_state_set>
		break;
    18f0:	17ffffc5 	b	1804 <handle_realm_rsi+0x150>
	switch (function_id) {
    18f4:	51000800 	sub	w0, w0, #0x2
    18f8:	6b00027f 	cmp	w19, w0
    18fc:	540003e1 	b.ne	1978 <handle_realm_rsi+0x2c4>  // b.any
		handle_rsi_attest_token_continue(rec, rec_exit, &res);
    1900:	9101e3e2 	add	x2, sp, #0x78
    1904:	aa1503e1 	mov	x1, x21
    1908:	aa1403e0 	mov	x0, x20
    190c:	94002a81 	bl	c310 <handle_rsi_attest_token_continue>
		break;
    1910:	17ffffbd 	b	1804 <handle_realm_rsi+0x150>
		handle_rsi_version(rec, &res);
    1914:	9101e3e1 	add	x1, sp, #0x78
    1918:	aa1403e0 	mov	x0, x20
    191c:	94002c5d 	bl	ca90 <handle_rsi_version>
		break;
    1920:	17ffffb9 	b	1804 <handle_realm_rsi+0x150>
		handle_rsi_attest_token_init(rec, &res);
    1924:	9101e3e1 	add	x1, sp, #0x78
    1928:	aa1403e0 	mov	x0, x20
    192c:	940029a8 	bl	bfcc <handle_rsi_attest_token_init>
		break;
    1930:	17ffffb5 	b	1804 <handle_realm_rsi+0x150>
		handle_rsi_measurement_read(rec, &res);
    1934:	9101e3e1 	add	x1, sp, #0x78
    1938:	aa1403e0 	mov	x0, x20
    193c:	94002b72 	bl	c704 <handle_rsi_measurement_read>
		break;
    1940:	17ffffb1 	b	1804 <handle_realm_rsi+0x150>
		handle_rsi_realm_config(rec, &res);
    1944:	9101e3e1 	add	x1, sp, #0x78
    1948:	aa1403e0 	mov	x0, x20
    194c:	94002168 	bl	9eec <handle_rsi_realm_config>
		break;
    1950:	17ffffad 	b	1804 <handle_realm_rsi+0x150>
		handle_rsi_ipa_state_get(rec, &res);
    1954:	9101e3e1 	add	x1, sp, #0x78
    1958:	aa1403e0 	mov	x0, x20
    195c:	9400244e 	bl	aa94 <handle_rsi_ipa_state_get>
		break;
    1960:	17ffffa9 	b	1804 <handle_realm_rsi+0x150>
		handle_rsi_host_call(rec, rec_exit, &res);
    1964:	9101e3e2 	add	x2, sp, #0x78
    1968:	aa1503e1 	mov	x1, x21
    196c:	aa1403e0 	mov	x0, x20
    1970:	940022d6 	bl	a4c8 <handle_rsi_host_call>
		break;
    1974:	17ffffa4 	b	1804 <handle_realm_rsi+0x150>
		res.action = UPDATE_REC_RETURN_TO_REALM;
    1978:	52800020 	mov	w0, #0x1                   	// #1
    197c:	b9007be0 	str	w0, [sp, #120]
		res.smc_res.x[0] = SMC_UNKNOWN;
    1980:	92800000 	mov	x0, #0xffffffffffffffff    	// #-1
    1984:	f90047e0 	str	x0, [sp, #136]
		break;
    1988:	17ffff9f 	b	1804 <handle_realm_rsi+0x150>
			rec->regs[i] = res.smc_res.x[i];
    198c:	2a0203e0 	mov	w0, w2
    1990:	91000800 	add	x0, x0, #0x2
    1994:	9101e3e3 	add	x3, sp, #0x78
    1998:	f8607863 	ldr	x3, [x3, x0, lsl #3]
    199c:	8b000e80 	add	x0, x20, x0, lsl #3
    19a0:	f9000403 	str	x3, [x0, #8]
		for (i = 0U; i < SMC_RESULT_REGS; ++i) {
    19a4:	11000442 	add	w2, w2, #0x1
    19a8:	7100105f 	cmp	w2, #0x4
    19ac:	54ffff09 	b.ls	198c <handle_realm_rsi+0x2d8>  // b.plast
    19b0:	17ffff97 	b	180c <handle_realm_rsi+0x158>
    19b4:	52800002 	mov	w2, #0x0                   	// #0
    19b8:	17fffffc 	b	19a8 <handle_realm_rsi+0x2f4>
		advance_pc();
    19bc:	97fffdb5 	bl	1090 <advance_pc>
    19c0:	17ffff98 	b	1820 <handle_realm_rsi+0x16c>

00000000000019c4 <handle_exception_sync>:
{
    19c4:	d503233f 	paciasp
    19c8:	a9bf7bf3 	stp	x19, x30, [sp, #-16]!
DEFINE_SYSREG_RW_FUNCS(esr_el2)
    19cc:	d53c5202 	mrs	x2, esr_el2
	switch (esr & MASK(ESR_EL2_EC)) {
    19d0:	92661443 	and	x3, x2, #0xfc000000
    19d4:	d2ac0004 	mov	x4, #0x60000000            	// #1610612736
    19d8:	eb04007f 	cmp	x3, x4
    19dc:	54000720 	b.eq	1ac0 <handle_exception_sync+0xfc>  // b.none
    19e0:	54000428 	b.hi	1a64 <handle_exception_sync+0xa0>  // b.pmore
    19e4:	d2ab0004 	mov	x4, #0x58000000            	// #1476395008
    19e8:	eb04007f 	cmp	x3, x4
    19ec:	54000640 	b.eq	1ab4 <handle_exception_sync+0xf0>  // b.none
    19f0:	540000e9 	b.ls	1a0c <handle_exception_sync+0x48>  // b.plast
    19f4:	d2ab8002 	mov	x2, #0x5c000000            	// #1543503872
    19f8:	eb02007f 	cmp	x3, x2
    19fc:	540002c1 	b.ne	1a54 <handle_exception_sync+0x90>  // b.any
		return handle_realm_rsi(rec, rec_exit);
    1a00:	97ffff2d 	bl	16b4 <handle_realm_rsi>
    1a04:	12001c13 	and	w19, w0, #0xff
    1a08:	14000014 	b	1a58 <handle_exception_sync+0x94>
	switch (esr & MASK(ESR_EL2_EC)) {
    1a0c:	d2a08004 	mov	x4, #0x4000000             	// #67108864
    1a10:	eb04007f 	cmp	x3, x4
    1a14:	540000e1 	b.ne	1a30 <handle_exception_sync+0x6c>  // b.any
		rec_exit->esr = esr & (MASK(ESR_EL2_EC) | ESR_EL2_WFx_TI_BIT);
    1a18:	92407c42 	and	x2, x2, #0xffffffff
    1a1c:	92669842 	and	x2, x2, #0xfffffffffc000001
    1a20:	f9008022 	str	x2, [x1, #256]
		advance_pc();
    1a24:	97fffd9b 	bl	1090 <advance_pc>
		return false;
    1a28:	52800013 	mov	w19, #0x0                   	// #0
    1a2c:	1400000b 	b	1a58 <handle_exception_sync+0x94>
	switch (esr & MASK(ESR_EL2_EC)) {
    1a30:	d2a38001 	mov	x1, #0x1c000000            	// #469762048
    1a34:	eb01007f 	cmp	x3, x1
    1a38:	540000a1 	b.ne	1a4c <handle_exception_sync+0x88>  // b.any
		return handle_simd_exception(rec, esr);
    1a3c:	aa0203e1 	mov	x1, x2
    1a40:	97fffdca 	bl	1168 <handle_simd_exception>
    1a44:	12001c13 	and	w19, w0, #0xff
    1a48:	14000004 	b	1a58 <handle_exception_sync+0x94>
	switch (esr & MASK(ESR_EL2_EC)) {
    1a4c:	52800013 	mov	w19, #0x0                   	// #0
    1a50:	14000002 	b	1a58 <handle_exception_sync+0x94>
    1a54:	52800013 	mov	w19, #0x0                   	// #0
}
    1a58:	2a1303e0 	mov	w0, w19
    1a5c:	a8c17bf3 	ldp	x19, x30, [sp], #16
    1a60:	d65f0bff 	retaa
	switch (esr & MASK(ESR_EL2_EC)) {
    1a64:	d2b00004 	mov	x4, #0x80000000            	// #2147483648
    1a68:	eb04007f 	cmp	x3, x4
    1a6c:	54000320 	b.eq	1ad0 <handle_exception_sync+0x10c>  // b.none
    1a70:	540000e9 	b.ls	1a8c <handle_exception_sync+0xc8>  // b.plast
    1a74:	d2b20004 	mov	x4, #0x90000000            	// #2415919104
    1a78:	eb04007f 	cmp	x3, x4
    1a7c:	54000181 	b.ne	1aac <handle_exception_sync+0xe8>  // b.any
		return handle_data_abort(rec, rec_exit, esr);
    1a80:	97fffe32 	bl	1348 <handle_data_abort>
    1a84:	12001c13 	and	w19, w0, #0xff
    1a88:	17fffff4 	b	1a58 <handle_exception_sync+0x94>
	switch (esr & MASK(ESR_EL2_EC)) {
    1a8c:	d2ac8001 	mov	x1, #0x64000000            	// #1677721600
    1a90:	eb01007f 	cmp	x3, x1
    1a94:	54fffd40 	b.eq	1a3c <handle_exception_sync+0x78>  // b.none
    1a98:	d2ae8001 	mov	x1, #0x74000000            	// #1946157056
    1a9c:	eb01007f 	cmp	x3, x1
    1aa0:	54fffce0 	b.eq	1a3c <handle_exception_sync+0x78>  // b.none
    1aa4:	52800013 	mov	w19, #0x0                   	// #0
    1aa8:	17ffffec 	b	1a58 <handle_exception_sync+0x94>
    1aac:	52800013 	mov	w19, #0x0                   	// #0
    1ab0:	17ffffea 	b	1a58 <handle_exception_sync+0x94>
		realm_inject_undef_abort();
    1ab4:	940002dc 	bl	2624 <realm_inject_undef_abort>
		return true;
    1ab8:	52800033 	mov	w19, #0x1                   	// #1
    1abc:	17ffffe7 	b	1a58 <handle_exception_sync+0x94>
		bool ret = handle_sysreg_access_trap(rec, rec_exit, esr);
    1ac0:	940005c1 	bl	31c4 <handle_sysreg_access_trap>
    1ac4:	12001c13 	and	w19, w0, #0xff
		advance_pc();
    1ac8:	97fffd72 	bl	1090 <advance_pc>
		return ret;
    1acc:	17ffffe3 	b	1a58 <handle_exception_sync+0x94>
		return handle_instruction_abort(rec, rec_exit, esr);
    1ad0:	97fffea2 	bl	1558 <handle_instruction_abort>
    1ad4:	12001c13 	and	w19, w0, #0xff
    1ad8:	17ffffe0 	b	1a58 <handle_exception_sync+0x94>

0000000000001adc <handle_realm_exit>:

/* Returns 'true' when returning to Realm (S) and false when to NS */
bool handle_realm_exit(struct rec *rec, struct rmi_rec_exit *rec_exit, int exception)
{
    1adc:	d503245f 	bti	c
	switch (exception) {
    1ae0:	7100085f 	cmp	w2, #0x2
    1ae4:	54000500 	b.eq	1b84 <handle_realm_exit+0xa8>  // b.none
{
    1ae8:	d503233f 	paciasp
    1aec:	a9be53f3 	stp	x19, x20, [sp, #-32]!
    1af0:	f9000bfe 	str	x30, [sp, #16]
    1af4:	aa0003f3 	mov	x19, x0
	switch (exception) {
    1af8:	5400012c 	b.gt	1b1c <handle_realm_exit+0x40>
    1afc:	340002e2 	cbz	w2, 1b58 <handle_realm_exit+0x7c>
    1b00:	7100045f 	cmp	w2, #0x1
    1b04:	54000481 	b.ne	1b94 <handle_realm_exit+0xb8>  // b.any
		/*
		 * TODO: Much more detailed handling of exit reasons.
		 */
	}
	case ARM_EXCEPTION_IRQ_LEL:
		return handle_exception_irq_lel(rec, rec_exit);
    1b08:	97fffd66 	bl	10a0 <handle_exception_irq_lel>
    1b0c:	12001c00 	and	w0, w0, #0xff
		INFO("Unrecognized exit reason: %d\n", exception);
		break;
	}

	return false;
}
    1b10:	f9400bfe 	ldr	x30, [sp, #16]
    1b14:	a8c253f3 	ldp	x19, x20, [sp], #32
    1b18:	d65f0bff 	retaa
	switch (exception) {
    1b1c:	71000c5f 	cmp	w2, #0x3
    1b20:	540003a1 	b.ne	1b94 <handle_realm_exit+0xb8>  // b.any
    1b24:	d53c5214 	mrs	x20, esr_el2
		rec_exit->exit_reason = RMI_EXIT_SERROR;
    1b28:	d28000c0 	mov	x0, #0x6                   	// #6
    1b2c:	f9000020 	str	x0, [x1]
		ret = handle_exception_serror_lel(rec, rec_exit);
    1b30:	aa1303e0 	mov	x0, x19
    1b34:	97fffe45 	bl	1448 <handle_exception_serror_lel>
		if (!ret) {
    1b38:	72001c00 	ands	w0, w0, #0xff
    1b3c:	54fffea1 	b.ne	1b10 <handle_realm_exit+0x34>  // b.any
			rec->last_run_info.esr = esr;
    1b40:	f9020a74 	str	x20, [x19, #1040]
DEFINE_SYSREG_RW_FUNCS(far_el2)
    1b44:	d53c6001 	mrs	x1, far_el2
			rec->last_run_info.far = read_far_el2();
    1b48:	f9021261 	str	x1, [x19, #1056]
DEFINE_SYSREG_RW_FUNCS(hpfar_el2)
    1b4c:	d53c6081 	mrs	x1, hpfar_el2
			rec->last_run_info.hpfar = read_hpfar_el2();
    1b50:	f9020e61 	str	x1, [x19, #1048]
    1b54:	17ffffef 	b	1b10 <handle_realm_exit+0x34>
		rec_exit->exit_reason = RMI_EXIT_SYNC;
    1b58:	f900003f 	str	xzr, [x1]
		ret = handle_exception_sync(rec, rec_exit);
    1b5c:	97ffff9a 	bl	19c4 <handle_exception_sync>
		if (!ret) {
    1b60:	72001c00 	ands	w0, w0, #0xff
    1b64:	54fffd61 	b.ne	1b10 <handle_realm_exit+0x34>  // b.any
DEFINE_SYSREG_RW_FUNCS(esr_el2)
    1b68:	d53c5201 	mrs	x1, esr_el2
			rec->last_run_info.esr = read_esr_el2();
    1b6c:	f9020a61 	str	x1, [x19, #1040]
DEFINE_SYSREG_RW_FUNCS(far_el2)
    1b70:	d53c6001 	mrs	x1, far_el2
			rec->last_run_info.far = read_far_el2();
    1b74:	f9021261 	str	x1, [x19, #1056]
DEFINE_SYSREG_RW_FUNCS(hpfar_el2)
    1b78:	d53c6081 	mrs	x1, hpfar_el2
			rec->last_run_info.hpfar = read_hpfar_el2();
    1b7c:	f9020e61 	str	x1, [x19, #1048]
    1b80:	17ffffe4 	b	1b10 <handle_realm_exit+0x34>
		rec_exit->exit_reason = RMI_EXIT_FIQ;
    1b84:	d2800040 	mov	x0, #0x2                   	// #2
    1b88:	f9000020 	str	x0, [x1]
	return false;
    1b8c:	52800000 	mov	w0, #0x0                   	// #0
}
    1b90:	d65f03c0 	ret
		INFO("Unrecognized exit reason: %d\n", exception);
    1b94:	2a0203e1 	mov	w1, w2
    1b98:	f0000140 	adrp	x0, 2c000 <rmm_text_end>
    1b9c:	91078000 	add	x0, x0, #0x1e0
    1ba0:	97fffe55 	bl	14f4 <rmm_log>
	return false;
    1ba4:	52800000 	mov	w0, #0x0                   	// #0
		break;
    1ba8:	17ffffda 	b	1b10 <handle_realm_exit+0x34>

0000000000001bac <is_el2_data_abort_gpf>:
	}
}

static bool is_el2_data_abort_gpf(unsigned long esr)
{
	if (((esr & MASK(ESR_EL2_EC)) == ESR_EL2_EC_DATA_ABORT_SEL) &&
    1bac:	92407c00 	and	x0, x0, #0xffffffff
    1bb0:	9266ac00 	and	x0, x0, #0xfffffffffc00003f
    1bb4:	d2800501 	mov	x1, #0x28                  	// #40
    1bb8:	f2b28001 	movk	x1, #0x9400, lsl #16
    1bbc:	eb01001f 	cmp	x0, x1
    1bc0:	54000060 	b.eq	1bcc <is_el2_data_abort_gpf+0x20>  // b.none
	    ((esr & MASK(ESR_EL2_ABORT_FSC)) == ESR_EL2_ABORT_FSC_GPF)) {
		return true;
	}
	return false;
    1bc4:	52800000 	mov	w0, #0x0                   	// #0
}
    1bc8:	d65f03c0 	ret
		return true;
    1bcc:	52800020 	mov	w0, #0x1                   	// #1
    1bd0:	17fffffe 	b	1bc8 <is_el2_data_abort_gpf+0x1c>

0000000000001bd4 <rmm_log>:
{
    1bd4:	d503233f 	paciasp
    1bd8:	f8170ffe 	str	x30, [sp, #-144]!
    1bdc:	f9002fe1 	str	x1, [sp, #88]
    1be0:	f90033e2 	str	x2, [sp, #96]
    1be4:	f90037e3 	str	x3, [sp, #104]
    1be8:	f9003be4 	str	x4, [sp, #112]
    1bec:	f9003fe5 	str	x5, [sp, #120]
    1bf0:	f90043e6 	str	x6, [sp, #128]
    1bf4:	f90047e7 	str	x7, [sp, #136]
	va_start(args, fmt);
    1bf8:	910243e1 	add	x1, sp, #0x90
    1bfc:	f9001be1 	str	x1, [sp, #48]
    1c00:	f9001fe1 	str	x1, [sp, #56]
    1c04:	910143e1 	add	x1, sp, #0x50
    1c08:	f90023e1 	str	x1, [sp, #64]
    1c0c:	128006e1 	mov	w1, #0xffffffc8            	// #-56
    1c10:	b9004be1 	str	w1, [sp, #72]
    1c14:	b9004fff 	str	wzr, [sp, #76]
	(void)vprintf(fmt, args);
    1c18:	a9430fe2 	ldp	x2, x3, [sp, #48]
    1c1c:	a9010fe2 	stp	x2, x3, [sp, #16]
    1c20:	a9440fe2 	ldp	x2, x3, [sp, #64]
    1c24:	a9020fe2 	stp	x2, x3, [sp, #32]
    1c28:	910043e1 	add	x1, sp, #0x10
    1c2c:	9400300e 	bl	dc64 <vprintf_>
}
    1c30:	f84907fe 	ldr	x30, [sp], #144
    1c34:	d65f0bff 	retaa

0000000000001c38 <rmi_log_on_exit>:
{
    1c38:	d503233f 	paciasp
    1c3c:	a9b953f3 	stp	x19, x20, [sp, #-112]!
    1c40:	a9015bf5 	stp	x21, x22, [sp, #16]
    1c44:	f90023fe 	str	x30, [sp, #64]
    1c48:	aa0103f5 	mov	x21, x1
    1c4c:	aa0203f6 	mov	x22, x2
	unsigned int function_id = SMC64_RMI_FID(handler_id);
    1c50:	11054014 	add	w20, w0, #0x150
    1c54:	12003e94 	and	w20, w20, #0xffff
    1c58:	52b88001 	mov	w1, #0xc4000000            	// #-1006632960
    1c5c:	2a010294 	orr	w20, w20, w1
	if (!handler->log_exec && !handler->log_error) {
    1c60:	d37f7c03 	ubfiz	x3, x0, #1, #32
    1c64:	8b204063 	add	x3, x3, w0, uxtw
    1c68:	f0000fe1 	adrp	x1, 200000 <rmi_status_string>
    1c6c:	91012021 	add	x1, x1, #0x48
    1c70:	8b030c23 	add	x3, x1, x3, lsl #3
    1c74:	39405062 	ldrb	w2, [x3, #20]
    1c78:	35000102 	cbnz	w2, 1c98 <rmi_log_on_exit+0x60>
    1c7c:	d37f7c01 	ubfiz	x1, x0, #1, #32
    1c80:	8b204021 	add	x1, x1, w0, uxtw
    1c84:	f0000fe3 	adrp	x3, 200000 <rmi_status_string>
    1c88:	91012063 	add	x3, x3, #0x48
    1c8c:	8b010c61 	add	x1, x3, x1, lsl #3
    1c90:	39405421 	ldrb	w1, [x1, #21]
    1c94:	34000ea1 	cbz	w1, 1e68 <rmi_log_on_exit+0x230>
    1c98:	a90263f7 	stp	x23, x24, [sp, #32]
	rc = unpack_return_code(res->x[0]);
    1c9c:	f94002d7 	ldr	x23, [x22]
/*
 * Unpacks a return code.
 */
static inline return_code_t unpack_return_code(unsigned long error_code)
{
	return make_return_code((unsigned int)error_code & 0xffU,
    1ca0:	12001ef8 	and	w24, w23, #0xff
    1ca4:	53087ef7 	lsr	w23, w23, #8
	return (return_code_t){status, index};
    1ca8:	b90063f8 	str	w24, [sp, #96]
    1cac:	b90067f7 	str	w23, [sp, #100]
    1cb0:	f94033e1 	ldr	x1, [sp, #96]
    1cb4:	f90037e1 	str	x1, [sp, #104]
    1cb8:	f9002fe1 	str	x1, [sp, #88]
	if ((handler->log_exec) ||
    1cbc:	35000122 	cbnz	w2, 1ce0 <rmi_log_on_exit+0xa8>
	    (handler->log_error && (rc.status != RMI_SUCCESS))) {
    1cc0:	d37f7c01 	ubfiz	x1, x0, #1, #32
    1cc4:	8b204021 	add	x1, x1, w0, uxtw
    1cc8:	f0000fe2 	adrp	x2, 200000 <rmi_status_string>
    1ccc:	91012042 	add	x2, x2, #0x48
    1cd0:	8b010c41 	add	x1, x2, x1, lsl #3
    1cd4:	39405421 	ldrb	w1, [x1, #21]
	if ((handler->log_exec) ||
    1cd8:	34000d01 	cbz	w1, 1e78 <rmi_log_on_exit+0x240>
	    (handler->log_error && (rc.status != RMI_SUCCESS))) {
    1cdc:	34000d38 	cbz	w24, 1e80 <rmi_log_on_exit+0x248>
    1ce0:	a9036bf9 	stp	x25, x26, [sp, #48]
		INFO("SMC_RMM_%-21s", handler->fn_name);
    1ce4:	f0000ff9 	adrp	x25, 200000 <rmi_status_string>
    1ce8:	91012339 	add	x25, x25, #0x48
    1cec:	2a0003fa 	mov	w26, w0
    1cf0:	d37f7c13 	ubfiz	x19, x0, #1, #32
    1cf4:	8b1a0260 	add	x0, x19, x26
    1cf8:	f8607b21 	ldr	x1, [x25, x0, lsl #3]
    1cfc:	f0000140 	adrp	x0, 2c000 <rmm_text_end>
    1d00:	910aa000 	add	x0, x0, #0x2a8
    1d04:	97ffffb4 	bl	1bd4 <rmm_log>
		num = (unsigned int)handler->type & 0xFFU;
    1d08:	8b1a0260 	add	x0, x19, x26
    1d0c:	8b000f20 	add	x0, x25, x0, lsl #3
    1d10:	b940101a 	ldr	w26, [x0, #16]
    1d14:	12001f59 	and	w25, w26, #0xff
		assert(num <= MAX_NUM_ARGS);
    1d18:	7100173f 	cmp	w25, #0x5
    1d1c:	54000068 	b.hi	1d28 <rmi_log_on_exit+0xf0>  // b.pmore
		for (unsigned int i = 0U; i < num; i++) {
    1d20:	52800013 	mov	w19, #0x0                   	// #0
    1d24:	1400000e 	b	1d5c <rmi_log_on_exit+0x124>
		assert(num <= MAX_NUM_ARGS);
    1d28:	f0000143 	adrp	x3, 2c000 <rmm_text_end>
    1d2c:	910ae063 	add	x3, x3, #0x2b8
    1d30:	f0000142 	adrp	x2, 2c000 <rmm_text_end>
    1d34:	91176042 	add	x2, x2, #0x5d8
    1d38:	52801821 	mov	w1, #0xc1                  	// #193
    1d3c:	f0000140 	adrp	x0, 2c000 <rmm_text_end>
    1d40:	910b4000 	add	x0, x0, #0x2d0
    1d44:	94002b7a 	bl	cb2c <__assert_func>
			INFO(" %lx", args[i]);
    1d48:	f8735aa1 	ldr	x1, [x21, w19, uxtw #3]
    1d4c:	f0000140 	adrp	x0, 2c000 <rmm_text_end>
    1d50:	910c0000 	add	x0, x0, #0x300
    1d54:	97ffffa0 	bl	1bd4 <rmm_log>
		for (unsigned int i = 0U; i < num; i++) {
    1d58:	11000673 	add	w19, w19, #0x1
    1d5c:	6b19027f 	cmp	w19, w25
    1d60:	54ffff43 	b.cc	1d48 <rmi_log_on_exit+0x110>  // b.lo, b.ul, b.last
		if (rc.status >= RMI_ERROR_COUNT) {
    1d64:	7100131f 	cmp	w24, #0x4
    1d68:	540003a9 	b.ls	1ddc <rmi_log_on_exit+0x1a4>  // b.plast
			INFO(" > %lx", res->x[0]);
    1d6c:	f94002c1 	ldr	x1, [x22]
    1d70:	f0000140 	adrp	x0, 2c000 <rmm_text_end>
    1d74:	910c2000 	add	x0, x0, #0x308
    1d78:	97ffff97 	bl	1bd4 <rmm_log>
		if (((function_id == SMC_RMM_REC_ENTER) &&
    1d7c:	52802b80 	mov	w0, #0x15c                 	// #348
    1d80:	72b88000 	movk	w0, #0xc400, lsl #16
    1d84:	6b00029f 	cmp	w20, w0
    1d88:	540003a0 	b.eq	1dfc <rmi_log_on_exit+0x1c4>  // b.none
		     (rc.status == RMI_ERROR_REALM)) ||
    1d8c:	7100131f 	cmp	w24, #0x4
    1d90:	540003a0 	b.eq	1e04 <rmi_log_on_exit+0x1cc>  // b.none
		if ((rc.status == RMI_SUCCESS) ||
    1d94:	340001b8 	cbz	w24, 1dc8 <rmi_log_on_exit+0x190>
    1d98:	7100131f 	cmp	w24, #0x4
    1d9c:	540005c1 	b.ne	1e54 <rmi_log_on_exit+0x21c>  // b.any
		   ((function_id == SMC_RMM_RTT_DESTROY) ||
    1da0:	52802bc0 	mov	w0, #0x15e                 	// #350
    1da4:	72b88000 	movk	w0, #0xc400, lsl #16
    1da8:	6b00029f 	cmp	w20, w0
    1dac:	1a9f17e0 	cset	w0, eq  // eq = none
		    (function_id == SMC_RMM_DATA_DESTROY)))) {
    1db0:	52802aa1 	mov	w1, #0x155                 	// #341
    1db4:	72b88001 	movk	w1, #0xc400, lsl #16
    1db8:	6b01029f 	cmp	w20, w1
    1dbc:	1a9f17e1 	cset	w1, eq  // eq = none
		   ((function_id == SMC_RMM_RTT_DESTROY) ||
    1dc0:	2a010000 	orr	w0, w0, w1
		   ((rc.status == RMI_ERROR_RTT) &&
    1dc4:	34000480 	cbz	w0, 1e54 <rmi_log_on_exit+0x21c>
			num = ((unsigned int)handler->type >> 8) & 0xFFU;
    1dc8:	d3483f5a 	ubfx	x26, x26, #8, #8
			assert(num <= MAX_NUM_OUTPUT_VALS);
    1dcc:	7100135f 	cmp	w26, #0x4
    1dd0:	54000248 	b.hi	1e18 <rmi_log_on_exit+0x1e0>  // b.pmore
			for (unsigned int i = 1U; i <= num; i++) {
    1dd4:	52800033 	mov	w19, #0x1                   	// #1
    1dd8:	1400001d 	b	1e4c <rmi_log_on_exit+0x214>
			INFO(" > RMI_%s", rmi_status_string[rc.status]);
    1ddc:	2a1803e1 	mov	w1, w24
    1de0:	f0000fe0 	adrp	x0, 200000 <rmi_status_string>
    1de4:	91000000 	add	x0, x0, #0x0
    1de8:	f8617801 	ldr	x1, [x0, x1, lsl #3]
    1dec:	f0000140 	adrp	x0, 2c000 <rmm_text_end>
    1df0:	910c4000 	add	x0, x0, #0x310
    1df4:	97ffff78 	bl	1bd4 <rmm_log>
    1df8:	17ffffe1 	b	1d7c <rmi_log_on_exit+0x144>
		if (((function_id == SMC_RMM_REC_ENTER) &&
    1dfc:	71000b1f 	cmp	w24, #0x2
    1e00:	54fffc61 	b.ne	1d8c <rmi_log_on_exit+0x154>  // b.any
			INFO(" %x", rc.index);
    1e04:	2a1703e1 	mov	w1, w23
    1e08:	f0000140 	adrp	x0, 2c000 <rmm_text_end>
    1e0c:	910c8000 	add	x0, x0, #0x320
    1e10:	97ffff71 	bl	1bd4 <rmm_log>
    1e14:	17ffffe0 	b	1d94 <rmi_log_on_exit+0x15c>
			assert(num <= MAX_NUM_OUTPUT_VALS);
    1e18:	f0000143 	adrp	x3, 2c000 <rmm_text_end>
    1e1c:	910ca063 	add	x3, x3, #0x328
    1e20:	f0000142 	adrp	x2, 2c000 <rmm_text_end>
    1e24:	91176042 	add	x2, x2, #0x5d8
    1e28:	52801b61 	mov	w1, #0xdb                  	// #219
    1e2c:	f0000140 	adrp	x0, 2c000 <rmm_text_end>
    1e30:	910b4000 	add	x0, x0, #0x2d0
    1e34:	94002b3e 	bl	cb2c <__assert_func>
				INFO(" %lx", res->x[i]);
    1e38:	f8735ac1 	ldr	x1, [x22, w19, uxtw #3]
    1e3c:	f0000140 	adrp	x0, 2c000 <rmm_text_end>
    1e40:	910c0000 	add	x0, x0, #0x300
    1e44:	97ffff64 	bl	1bd4 <rmm_log>
			for (unsigned int i = 1U; i <= num; i++) {
    1e48:	11000673 	add	w19, w19, #0x1
    1e4c:	6b1a027f 	cmp	w19, w26
    1e50:	54ffff49 	b.ls	1e38 <rmi_log_on_exit+0x200>  // b.plast
		INFO("\n");
    1e54:	b0000160 	adrp	x0, 2e000 <__func__.9+0xd8>
    1e58:	91152000 	add	x0, x0, #0x548
    1e5c:	97ffff5e 	bl	1bd4 <rmm_log>
    1e60:	a94263f7 	ldp	x23, x24, [sp, #32]
    1e64:	a9436bf9 	ldp	x25, x26, [sp, #48]
}
    1e68:	a9415bf5 	ldp	x21, x22, [sp, #16]
    1e6c:	f94023fe 	ldr	x30, [sp, #64]
    1e70:	a8c753f3 	ldp	x19, x20, [sp], #112
    1e74:	d65f0bff 	retaa
    1e78:	a94263f7 	ldp	x23, x24, [sp, #32]
    1e7c:	17fffffb 	b	1e68 <rmi_log_on_exit+0x230>
    1e80:	a94263f7 	ldp	x23, x24, [sp, #32]
    1e84:	17fffff9 	b	1e68 <rmi_log_on_exit+0x230>

0000000000001e88 <report_unexpected>:
{
    1e88:	d503233f 	paciasp
    1e8c:	a9bf7bf3 	stp	x19, x30, [sp, #-16]!
	ERROR("----\n");
    1e90:	f0000153 	adrp	x19, 2c000 <rmm_text_end>
    1e94:	910d2273 	add	x19, x19, #0x348
    1e98:	aa1303e0 	mov	x0, x19
    1e9c:	97ffff4e 	bl	1bd4 <rmm_log>
	ERROR("Unexpected exception:\n");
    1ea0:	f0000140 	adrp	x0, 2c000 <rmm_text_end>
    1ea4:	910d4000 	add	x0, x0, #0x350
    1ea8:	97ffff4b 	bl	1bd4 <rmm_log>
DEFINE_SYSREG_RW_FUNCS(spsr_el2)
    1eac:	d53c4001 	mrs	x1, spsr_el2
	ERROR("SPSR_EL2: 0x%016lx\n", read_spsr_el2());
    1eb0:	f0000140 	adrp	x0, 2c000 <rmm_text_end>
    1eb4:	910da000 	add	x0, x0, #0x368
    1eb8:	97ffff47 	bl	1bd4 <rmm_log>
DEFINE_SYSREG_RW_FUNCS(esr_el2)
    1ebc:	d53c5201 	mrs	x1, esr_el2
	ERROR("ESR_EL2:  0x%016lx\n", read_esr_el2());
    1ec0:	f0000140 	adrp	x0, 2c000 <rmm_text_end>
    1ec4:	910e0000 	add	x0, x0, #0x380
    1ec8:	97ffff43 	bl	1bd4 <rmm_log>
DEFINE_SYSREG_RW_FUNCS(elr_el2)
    1ecc:	d53c4021 	mrs	x1, elr_el2
	ERROR("ELR_EL2:  0x%016lx\n", read_elr_el2());
    1ed0:	f0000140 	adrp	x0, 2c000 <rmm_text_end>
    1ed4:	910e6000 	add	x0, x0, #0x398
    1ed8:	97ffff3f 	bl	1bd4 <rmm_log>
DEFINE_SYSREG_RW_FUNCS(far_el2)
    1edc:	d53c6001 	mrs	x1, far_el2
	ERROR("FAR_EL2:  0x%016lx\n", read_far_el2());
    1ee0:	f0000140 	adrp	x0, 2c000 <rmm_text_end>
    1ee4:	910ec000 	add	x0, x0, #0x3b0
    1ee8:	97ffff3b 	bl	1bd4 <rmm_log>
	ERROR("----\n");
    1eec:	aa1303e0 	mov	x0, x19
    1ef0:	97ffff39 	bl	1bd4 <rmm_log>
}
    1ef4:	a8c17bf3 	ldp	x19, x30, [sp], #16
    1ef8:	d65f0bff 	retaa

0000000000001efc <fatal_abort>:
{
    1efc:	d503233f 	paciasp
    1f00:	f81f0ffe 	str	x30, [sp, #-16]!
	report_unexpected();
    1f04:	97ffffe1 	bl	1e88 <report_unexpected>
DEFINE_SYSOP_FUNC(wfe)
    1f08:	d503205f 	wfe
    1f0c:	17ffffff 	b	1f08 <fatal_abort+0xc>

0000000000001f10 <handle_ns_smc>:
{
    1f10:	d503233f 	paciasp
    1f14:	a9b753f3 	stp	x19, x20, [sp, #-144]!
    1f18:	a9015bf5 	stp	x21, x22, [sp, #16]
    1f1c:	a90263f7 	stp	x23, x24, [sp, #32]
    1f20:	a9036bf9 	stp	x25, x26, [sp, #48]
    1f24:	f9002bfe 	str	x30, [sp, #80]
    1f28:	aa0103f5 	mov	x21, x1
    1f2c:	aa0203f6 	mov	x22, x2
    1f30:	aa0303f7 	mov	x23, x3
    1f34:	aa0403f8 	mov	x24, x4
    1f38:	aa0503f9 	mov	x25, x5
    1f3c:	aa0703f4 	mov	x20, x7
	unsigned long args[] __unused = {arg0, arg1, arg2, arg3, arg4};
    1f40:	f90037e1 	str	x1, [sp, #104]
    1f44:	f9003be2 	str	x2, [sp, #112]
    1f48:	f9003fe3 	str	x3, [sp, #120]
    1f4c:	f90043e4 	str	x4, [sp, #128]
    1f50:	f90047e5 	str	x5, [sp, #136]
	if ((function_id & SMC_SVE_HINT) != 0U) {
    1f54:	36800600 	tbz	w0, #16, 2014 <handle_ns_smc+0x104>
		function_id &= ~SMC_SVE_HINT;
    1f58:	120f7800 	and	w0, w0, #0xfffeffff
		sve_hint = true;
    1f5c:	5280003a 	mov	w26, #0x1                   	// #1
	if (IS_SMC64_RMI_FID(function_id)) {
    1f60:	12103c02 	and	w2, w0, #0xffff0000
    1f64:	52b88001 	mov	w1, #0xc4000000            	// #-1006632960
    1f68:	6b01005f 	cmp	w2, w1
    1f6c:	540005a1 	b.ne	2020 <handle_ns_smc+0x110>  // b.any
    1f70:	12003c00 	and	w0, w0, #0xffff
    1f74:	51054013 	sub	w19, w0, #0x150
    1f78:	7100667f 	cmp	w19, #0x19
    1f7c:	54000528 	b.hi	2020 <handle_ns_smc+0x110>  // b.pmore
    1f80:	a90473fb 	stp	x27, x28, [sp, #64]
			handler = &smc_handlers[handler_id];
    1f84:	f0000fe0 	adrp	x0, 200000 <rmi_status_string>
    1f88:	91012000 	add	x0, x0, #0x48
    1f8c:	d37f7e61 	ubfiz	x1, x19, #1, #32
    1f90:	8b334021 	add	x1, x1, w19, uxtw
	if ((handler == NULL) || (handler->fn_dummy == NULL)) {
    1f94:	ab010c1c 	adds	x28, x0, x1, lsl #3
    1f98:	54000540 	b.eq	2040 <handle_ns_smc+0x130>  // b.none
    1f9c:	f940079b 	ldr	x27, [x28, #8]
    1fa0:	b40003fb 	cbz	x27, 201c <handle_ns_smc+0x10c>
	assert(check_cpu_slots_empty());
    1fa4:	9400308b 	bl	e1d0 <check_cpu_slots_empty>
    1fa8:	12001c00 	and	w0, w0, #0xff
    1fac:	340004e0 	cbz	w0, 2048 <handle_ns_smc+0x138>
	assert(simd_is_state_saved() == false);
    1fb0:	9400a55a 	bl	2b518 <simd_is_state_saved>
    1fb4:	12001c00 	and	w0, w0, #0xff
    1fb8:	35000580 	cbnz	w0, 2068 <handle_ns_smc+0x158>
	ns_simd_ctx = get_cpu_ns_simd_context();
    1fbc:	940002c2 	bl	2ac4 <get_cpu_ns_simd_context>
	simd_update_smc_sve_hint(ns_simd_ctx, sve_hint);
    1fc0:	2a1a03e1 	mov	w1, w26
    1fc4:	9400a62b 	bl	2b870 <simd_update_smc_sve_hint>
	switch (handler->type) {
    1fc8:	b9401380 	ldr	w0, [x28, #16]
    1fcc:	7104041f 	cmp	w0, #0x101
    1fd0:	54000e80 	b.eq	21a0 <handle_ns_smc+0x290>  // b.none
    1fd4:	540008a8 	b.hi	20e8 <handle_ns_smc+0x1d8>  // b.pmore
    1fd8:	71000c1f 	cmp	w0, #0x3
    1fdc:	54000c80 	b.eq	216c <handle_ns_smc+0x25c>  // b.none
    1fe0:	54000549 	b.ls	2088 <handle_ns_smc+0x178>  // b.plast
    1fe4:	7100101f 	cmp	w0, #0x4
    1fe8:	54000ce0 	b.eq	2184 <handle_ns_smc+0x274>  // b.none
    1fec:	7100141f 	cmp	w0, #0x5
    1ff0:	54001041 	b.ne	21f8 <handle_ns_smc+0x2e8>  // b.any
		res->x[0] = handler->f_50(arg0, arg1, arg2, arg3, arg4);
    1ff4:	aa1903e4 	mov	x4, x25
    1ff8:	aa1803e3 	mov	x3, x24
    1ffc:	aa1703e2 	mov	x2, x23
    2000:	aa1603e1 	mov	x1, x22
    2004:	aa1503e0 	mov	x0, x21
    2008:	d63f0360 	blr	x27
    200c:	f9000280 	str	x0, [x20]
		break;
    2010:	1400002a 	b	20b8 <handle_ns_smc+0x1a8>
	bool sve_hint = false;
    2014:	5280001a 	mov	w26, #0x0                   	// #0
    2018:	17ffffd2 	b	1f60 <handle_ns_smc+0x50>
    201c:	a94473fb 	ldp	x27, x28, [sp, #64]
		res->x[0] = SMC_UNKNOWN;
    2020:	92800000 	mov	x0, #0xffffffffffffffff    	// #-1
    2024:	f9000280 	str	x0, [x20]
}
    2028:	a9415bf5 	ldp	x21, x22, [sp, #16]
    202c:	a94263f7 	ldp	x23, x24, [sp, #32]
    2030:	a9436bf9 	ldp	x25, x26, [sp, #48]
    2034:	f9402bfe 	ldr	x30, [sp, #80]
    2038:	a8c953f3 	ldp	x19, x20, [sp], #144
    203c:	d65f0bff 	retaa
    2040:	a94473fb 	ldp	x27, x28, [sp, #64]
    2044:	17fffff7 	b	2020 <handle_ns_smc+0x110>
	assert(check_cpu_slots_empty());
    2048:	d0000143 	adrp	x3, 2c000 <rmm_text_end>
    204c:	910f2063 	add	x3, x3, #0x3c8
    2050:	d0000142 	adrp	x2, 2c000 <rmm_text_end>
    2054:	9117a042 	add	x2, x2, #0x5e8
    2058:	52802201 	mov	w1, #0x110                 	// #272
    205c:	d0000140 	adrp	x0, 2c000 <rmm_text_end>
    2060:	910b4000 	add	x0, x0, #0x2d0
    2064:	94002ab2 	bl	cb2c <__assert_func>
	assert(simd_is_state_saved() == false);
    2068:	d0000143 	adrp	x3, 2c000 <rmm_text_end>
    206c:	910f8063 	add	x3, x3, #0x3e0
    2070:	d0000142 	adrp	x2, 2c000 <rmm_text_end>
    2074:	9117a042 	add	x2, x2, #0x5e8
    2078:	52802261 	mov	w1, #0x113                 	// #275
    207c:	d0000140 	adrp	x0, 2c000 <rmm_text_end>
    2080:	910b4000 	add	x0, x0, #0x2d0
    2084:	94002aaa 	bl	cb2c <__assert_func>
	switch (handler->type) {
    2088:	7100041f 	cmp	w0, #0x1
    208c:	54000680 	b.eq	215c <handle_ns_smc+0x24c>  // b.none
    2090:	7100081f 	cmp	w0, #0x2
    2094:	540000c1 	b.ne	20ac <handle_ns_smc+0x19c>  // b.any
		res->x[0] = handler->f_20(arg0, arg1);
    2098:	aa1603e1 	mov	x1, x22
    209c:	aa1503e0 	mov	x0, x21
    20a0:	d63f0360 	blr	x27
    20a4:	f9000280 	str	x0, [x20]
		break;
    20a8:	14000004 	b	20b8 <handle_ns_smc+0x1a8>
	switch (handler->type) {
    20ac:	35000a60 	cbnz	w0, 21f8 <handle_ns_smc+0x2e8>
		res->x[0] = handler->f_00();
    20b0:	d63f0360 	blr	x27
    20b4:	f9000280 	str	x0, [x20]
	rmi_log_on_exit(handler_id, args, res);
    20b8:	aa1403e2 	mov	x2, x20
    20bc:	9101a3e1 	add	x1, sp, #0x68
    20c0:	2a1303e0 	mov	w0, w19
    20c4:	97fffedd 	bl	1c38 <rmi_log_on_exit>
	assert(simd_is_state_saved() == false);
    20c8:	9400a514 	bl	2b518 <simd_is_state_saved>
    20cc:	12001c00 	and	w0, w0, #0xff
    20d0:	35000a40 	cbnz	w0, 2218 <handle_ns_smc+0x308>
	assert(check_cpu_slots_empty());
    20d4:	9400303f 	bl	e1d0 <check_cpu_slots_empty>
    20d8:	12001c00 	and	w0, w0, #0xff
    20dc:	34000ae0 	cbz	w0, 2238 <handle_ns_smc+0x328>
    20e0:	a94473fb 	ldp	x27, x28, [sp, #64]
    20e4:	17ffffd1 	b	2028 <handle_ns_smc+0x118>
	switch (handler->type) {
    20e8:	7108081f 	cmp	w0, #0x202
    20ec:	54000620 	b.eq	21b0 <handle_ns_smc+0x2a0>  // b.none
    20f0:	54000169 	b.ls	211c <handle_ns_smc+0x20c>  // b.plast
    20f4:	71080c1f 	cmp	w0, #0x203
    20f8:	54000660 	b.eq	21c4 <handle_ns_smc+0x2b4>  // b.none
    20fc:	71100c1f 	cmp	w0, #0x403
    2100:	540007c1 	b.ne	21f8 <handle_ns_smc+0x2e8>  // b.any
		handler->f_34(arg0, arg1, arg2, res);
    2104:	aa1403e3 	mov	x3, x20
    2108:	aa1703e2 	mov	x2, x23
    210c:	aa1603e1 	mov	x1, x22
    2110:	aa1503e0 	mov	x0, x21
    2114:	d63f0360 	blr	x27
		break;
    2118:	17ffffe8 	b	20b8 <handle_ns_smc+0x1a8>
	switch (handler->type) {
    211c:	7104101f 	cmp	w0, #0x104
    2120:	540005e0 	b.eq	21dc <handle_ns_smc+0x2cc>  // b.none
    2124:	7108041f 	cmp	w0, #0x201
    2128:	540000a1 	b.ne	213c <handle_ns_smc+0x22c>  // b.any
		handler->f_12(arg0, res);
    212c:	aa1403e1 	mov	x1, x20
    2130:	aa1503e0 	mov	x0, x21
    2134:	d63f0360 	blr	x27
		break;
    2138:	17ffffe0 	b	20b8 <handle_ns_smc+0x1a8>
	switch (handler->type) {
    213c:	71040c1f 	cmp	w0, #0x103
    2140:	540005c1 	b.ne	21f8 <handle_ns_smc+0x2e8>  // b.any
		handler->f_31(arg0, arg1, arg2, res);
    2144:	aa1403e3 	mov	x3, x20
    2148:	aa1703e2 	mov	x2, x23
    214c:	aa1603e1 	mov	x1, x22
    2150:	aa1503e0 	mov	x0, x21
    2154:	d63f0360 	blr	x27
		break;
    2158:	17ffffd8 	b	20b8 <handle_ns_smc+0x1a8>
		res->x[0] = handler->f_10(arg0);
    215c:	aa1503e0 	mov	x0, x21
    2160:	d63f0360 	blr	x27
    2164:	f9000280 	str	x0, [x20]
		break;
    2168:	17ffffd4 	b	20b8 <handle_ns_smc+0x1a8>
		res->x[0] = handler->f_30(arg0, arg1, arg2);
    216c:	aa1703e2 	mov	x2, x23
    2170:	aa1603e1 	mov	x1, x22
    2174:	aa1503e0 	mov	x0, x21
    2178:	d63f0360 	blr	x27
    217c:	f9000280 	str	x0, [x20]
		break;
    2180:	17ffffce 	b	20b8 <handle_ns_smc+0x1a8>
		res->x[0] = handler->f_40(arg0, arg1, arg2, arg3);
    2184:	aa1803e3 	mov	x3, x24
    2188:	aa1703e2 	mov	x2, x23
    218c:	aa1603e1 	mov	x1, x22
    2190:	aa1503e0 	mov	x0, x21
    2194:	d63f0360 	blr	x27
    2198:	f9000280 	str	x0, [x20]
		break;
    219c:	17ffffc7 	b	20b8 <handle_ns_smc+0x1a8>
		handler->f_11(arg0, res);
    21a0:	aa1403e1 	mov	x1, x20
    21a4:	aa1503e0 	mov	x0, x21
    21a8:	d63f0360 	blr	x27
		break;
    21ac:	17ffffc3 	b	20b8 <handle_ns_smc+0x1a8>
		handler->f_22(arg0, arg1, res);
    21b0:	aa1403e2 	mov	x2, x20
    21b4:	aa1603e1 	mov	x1, x22
    21b8:	aa1503e0 	mov	x0, x21
    21bc:	d63f0360 	blr	x27
		break;
    21c0:	17ffffbe 	b	20b8 <handle_ns_smc+0x1a8>
		handler->f_32(arg0, arg1, arg2, res);
    21c4:	aa1403e3 	mov	x3, x20
    21c8:	aa1703e2 	mov	x2, x23
    21cc:	aa1603e1 	mov	x1, x22
    21d0:	aa1503e0 	mov	x0, x21
    21d4:	d63f0360 	blr	x27
		break;
    21d8:	17ffffb8 	b	20b8 <handle_ns_smc+0x1a8>
		handler->f_41(arg0, arg1, arg2, arg3, res);
    21dc:	aa1403e4 	mov	x4, x20
    21e0:	aa1803e3 	mov	x3, x24
    21e4:	aa1703e2 	mov	x2, x23
    21e8:	aa1603e1 	mov	x1, x22
    21ec:	aa1503e0 	mov	x0, x21
    21f0:	d63f0360 	blr	x27
		break;
    21f4:	17ffffb1 	b	20b8 <handle_ns_smc+0x1a8>
		assert(false);
    21f8:	d0000143 	adrp	x3, 2c000 <rmm_text_end>
    21fc:	91010063 	add	x3, x3, #0x40
    2200:	d0000142 	adrp	x2, 2c000 <rmm_text_end>
    2204:	9117a042 	add	x2, x2, #0x5e8
    2208:	52802941 	mov	w1, #0x14a                 	// #330
    220c:	d0000140 	adrp	x0, 2c000 <rmm_text_end>
    2210:	910b4000 	add	x0, x0, #0x2d0
    2214:	94002a46 	bl	cb2c <__assert_func>
	assert(simd_is_state_saved() == false);
    2218:	d0000143 	adrp	x3, 2c000 <rmm_text_end>
    221c:	910f8063 	add	x3, x3, #0x3e0
    2220:	d0000142 	adrp	x2, 2c000 <rmm_text_end>
    2224:	9117a042 	add	x2, x2, #0x5e8
    2228:	52802aa1 	mov	w1, #0x155                 	// #341
    222c:	d0000140 	adrp	x0, 2c000 <rmm_text_end>
    2230:	910b4000 	add	x0, x0, #0x2d0
    2234:	94002a3e 	bl	cb2c <__assert_func>
	assert(check_cpu_slots_empty());
    2238:	d0000143 	adrp	x3, 2c000 <rmm_text_end>
    223c:	910f2063 	add	x3, x3, #0x3c8
    2240:	d0000142 	adrp	x2, 2c000 <rmm_text_end>
    2244:	9117a042 	add	x2, x2, #0x5e8
    2248:	52802ac1 	mov	w1, #0x156                 	// #342
    224c:	d0000140 	adrp	x0, 2c000 <rmm_text_end>
    2250:	910b4000 	add	x0, x0, #0x2d0
    2254:	94002a36 	bl	cb2c <__assert_func>

0000000000002258 <handle_rmm_trap>:
 * continue from. Other register values are preserved.
 * If no match is found, it aborts the RMM.
 */
/* coverity[misra_c_2012_rule_8_4_violation:SUPPRESS] */
unsigned long handle_rmm_trap(void)
{
    2258:	d503233f 	paciasp
    225c:	a9bf7bf3 	stp	x19, x30, [sp, #-16]!
DEFINE_SYSREG_RW_FUNCS(esr_el2)
    2260:	d53c5200 	mrs	x0, esr_el2
DEFINE_SYSREG_RW_FUNCS(elr_el2)
    2264:	d53c4033 	mrs	x19, elr_el2
	unsigned long elr = read_elr_el2();

	/*
	 * Only the GPF data aborts are recoverable.
	 */
	if (!is_el2_data_abort_gpf(esr)) {
    2268:	97fffe51 	bl	1bac <is_el2_data_abort_gpf>
    226c:	12001c00 	and	w0, w0, #0xff
    2270:	34000180 	cbz	w0, 22a0 <handle_rmm_trap+0x48>
		fatal_abort();
	}

	for (unsigned int i = 0U; i < RMM_TRAP_LIST_SIZE; i++) {
    2274:	52800000 	mov	w0, #0x0                   	// #0
    2278:	7100041f 	cmp	w0, #0x1
    227c:	54000148 	b.hi	22a4 <handle_rmm_trap+0x4c>  // b.pmore
		if (rmm_trap_list[i].aborted_pc == elr) {
    2280:	d37c7c01 	ubfiz	x1, x0, #4, #32
    2284:	d0000fe2 	adrp	x2, 200000 <rmi_status_string>
    2288:	9100a042 	add	x2, x2, #0x28
    228c:	f8616841 	ldr	x1, [x2, x1]
    2290:	eb13003f 	cmp	x1, x19
    2294:	540000a0 	b.eq	22a8 <handle_rmm_trap+0x50>  // b.none
	for (unsigned int i = 0U; i < RMM_TRAP_LIST_SIZE; i++) {
    2298:	11000400 	add	w0, w0, #0x1
    229c:	17fffff7 	b	2278 <handle_rmm_trap+0x20>
		fatal_abort();
    22a0:	97ffff17 	bl	1efc <fatal_abort>
			return rmm_trap_list[i].new_pc;
		}
	}

	fatal_abort();
    22a4:	97ffff16 	bl	1efc <fatal_abort>
			return rmm_trap_list[i].new_pc;
    22a8:	d37c7c00 	ubfiz	x0, x0, #4, #32
    22ac:	d0000fe1 	adrp	x1, 200000 <rmi_status_string>
    22b0:	9100a021 	add	x1, x1, #0x28
    22b4:	8b000020 	add	x0, x1, x0
    22b8:	f9400400 	ldr	x0, [x0, #8]
	return 0UL;
}
    22bc:	a8c17bf3 	ldp	x19, x30, [sp], #16
    22c0:	d65f0bff 	retaa

00000000000022c4 <rmm_arch_init>:
DEFINE_SYSREG_RW_FUNCS(cntps_cval_el1)
DEFINE_SYSREG_RW_FUNCS(cntp_ctl_el0)
DEFINE_SYSREG_RW_FUNCS(cntp_tval_el0)
DEFINE_SYSREG_RW_FUNCS(cntp_cval_el0)
DEFINE_SYSREG_READ_FUNC(cntpct_el0)
DEFINE_SYSREG_RW_FUNCS(cnthctl_el2)
    22c4:	d2800060 	mov	x0, #0x3                   	// #3
    22c8:	d51ce100 	msr	cnthctl_el2, x0
DEFINE_SYSREG_READ_FUNC(midr_el1)
    22cc:	d5380000 	mrs	x0, midr_el1
DEFINE_SYSREG_RW_FUNCS(vpidr_el2)
    22d0:	d51c0000 	msr	vpidr_el2, x0
DEFINE_SYSREG_RW_FUNCS(pmcr_el0)
    22d4:	d53b9c00 	mrs	x0, pmcr_el0
	SPE(write_pmscr_el2(PMSCR_EL2_INIT));

	write_cnthctl_el2(CNTHCTL_EL2_INIT);
	write_vpidr_el2(read_midr_el1());
	write_mdcr_el2(MDCR_EL2_INIT |
			INPLACE(MDCR_EL2_HPMN,
    22d8:	d34b3c00 	ubfx	x0, x0, #11, #5
	write_mdcr_el2(MDCR_EL2_INIT |
    22dc:	d2804c01 	mov	x1, #0x260                 	// #608
    22e0:	f2a21041 	movk	x1, #0x1082, lsl #16
    22e4:	aa010000 	orr	x0, x0, x1
DEFINE_SYSREG_RW_FUNCS(mdcr_el2)
    22e8:	d51c1120 	msr	mdcr_el2, x0
			EXTRACT(PMCR_EL0_N, read_pmcr_el0())));
}
    22ec:	d65f03c0 	ret

00000000000022f0 <rmm_log>:
{
    22f0:	d503233f 	paciasp
    22f4:	f8170ffe 	str	x30, [sp, #-144]!
    22f8:	f9002fe1 	str	x1, [sp, #88]
    22fc:	f90033e2 	str	x2, [sp, #96]
    2300:	f90037e3 	str	x3, [sp, #104]
    2304:	f9003be4 	str	x4, [sp, #112]
    2308:	f9003fe5 	str	x5, [sp, #120]
    230c:	f90043e6 	str	x6, [sp, #128]
    2310:	f90047e7 	str	x7, [sp, #136]
	va_start(args, fmt);
    2314:	910243e1 	add	x1, sp, #0x90
    2318:	f9001be1 	str	x1, [sp, #48]
    231c:	f9001fe1 	str	x1, [sp, #56]
    2320:	910143e1 	add	x1, sp, #0x50
    2324:	f90023e1 	str	x1, [sp, #64]
    2328:	128006e1 	mov	w1, #0xffffffc8            	// #-56
    232c:	b9004be1 	str	w1, [sp, #72]
    2330:	b9004fff 	str	wzr, [sp, #76]
	(void)vprintf(fmt, args);
    2334:	a9430fe2 	ldp	x2, x3, [sp, #48]
    2338:	a9010fe2 	stp	x2, x3, [sp, #16]
    233c:	a9440fe2 	ldp	x2, x3, [sp, #64]
    2340:	a9020fe2 	stp	x2, x3, [sp, #32]
    2344:	910043e1 	add	x1, sp, #0x10
    2348:	94002e47 	bl	dc64 <vprintf_>
}
    234c:	f84907fe 	ldr	x30, [sp], #144
    2350:	d65f0bff 	retaa

0000000000002354 <rmm_warmboot_main>:

/* coverity[misra_c_2012_rule_8_4_violation:SUPPRESS] */
/* coverity[misra_c_2012_rule_8_7_violation:SUPPRESS] */
void rmm_warmboot_main(void)
{
    2354:	d503233f 	paciasp
    2358:	f81f0ffe 	str	x30, [sp, #-16]!
	/*
	 * Do the rest of RMM architecture init
	 */
	rmm_arch_init();
    235c:	97ffffda 	bl	22c4 <rmm_arch_init>

	/*
	 * Finish initializing the slot buffer mechanism
	 */
	slot_buf_finish_warmboot_init();
    2360:	94002f76 	bl	e138 <slot_buf_finish_warmboot_init>
}
    2364:	f84107fe 	ldr	x30, [sp], #16
    2368:	d65f0bff 	retaa

000000000000236c <rmm_main>:
 * compatible declaration is required.
 */
/* coverity[misra_c_2012_rule_8_4_violation:SUPPRESS] */
/* coverity[misra_c_2012_rule_8_7_violation:SUPPRESS] */
void rmm_main(void)
{
    236c:	d503233f 	paciasp
    2370:	a9be53f3 	stp	x19, x20, [sp, #-32]!
    2374:	f9000bfe 	str	x30, [sp, #16]
	unsigned int rmm_el3_ifc_version = rmm_el3_ifc_get_version();
    2378:	9400406d 	bl	1252c <rmm_el3_ifc_get_version>
    237c:	2a0003f4 	mov	w20, w0
	unsigned int manifest_version = rmm_el3_ifc_get_manifest_version();
    2380:	940040bf 	bl	1267c <rmm_el3_ifc_get_manifest_version>
    2384:	2a0003f3 	mov	w19, w0

	/*
	 * Report project name, version, build type and
	 * commit information if it is present
	 */
	NOTICE("Booting %s v.%s(%s) %s Built with %s\n",
    2388:	d0000145 	adrp	x5, 2c000 <rmm_text_end>
    238c:	9117e0a5 	add	x5, x5, #0x5f8
    2390:	d0000144 	adrp	x4, 2c000 <rmm_text_end>
    2394:	91182084 	add	x4, x4, #0x608
    2398:	d0000143 	adrp	x3, 2c000 <rmm_text_end>
    239c:	91186063 	add	x3, x3, #0x618
    23a0:	d0000142 	adrp	x2, 2c000 <rmm_text_end>
    23a4:	91188042 	add	x2, x2, #0x620
    23a8:	d0000141 	adrp	x1, 2c000 <rmm_text_end>
    23ac:	9118a021 	add	x1, x1, #0x628
    23b0:	d0000140 	adrp	x0, 2c000 <rmm_text_end>
    23b4:	9118c000 	add	x0, x0, #0x630
    23b8:	97ffffce 	bl	22f0 <rmm_log>
		__GNUC_PATCHLEVEL__)
#endif
		);

	/* Report Boot Interface version */
	NOTICE("RMM-EL3 Interface v.%u.%u\n",
    23bc:	12003e82 	and	w2, w20, #0xffff
    23c0:	d3507a81 	ubfx	x1, x20, #16, #15
    23c4:	d0000140 	adrp	x0, 2c000 <rmm_text_end>
    23c8:	91196000 	add	x0, x0, #0x658
    23cc:	97ffffc9 	bl	22f0 <rmm_log>
		RMM_EL3_IFC_GET_VERS_MAJOR(rmm_el3_ifc_version),
		RMM_EL3_IFC_GET_VERS_MINOR(rmm_el3_ifc_version));

	/* Report Boot Manifest version */
	NOTICE("Boot Manifest Interface v.%u.%u\n",
    23d0:	12003e62 	and	w2, w19, #0xffff
    23d4:	d3507a61 	ubfx	x1, x19, #16, #15
    23d8:	d0000140 	adrp	x0, 2c000 <rmm_text_end>
    23dc:	9119e000 	add	x0, x0, #0x678
    23e0:	97ffffc4 	bl	22f0 <rmm_log>
		RMM_EL3_MANIFEST_GET_VERS_MAJOR(manifest_version),
		RMM_EL3_MANIFEST_GET_VERS_MINOR(manifest_version));

	/* Report RMI/RSI ABI versions and build timestamp */
	NOTICE("RMI/RSI ABI v.%lu.%lu/%lu.%lu built: %s %s\n",
    23e4:	d0000146 	adrp	x6, 2c000 <rmm_text_end>
    23e8:	911a80c6 	add	x6, x6, #0x6a0
    23ec:	d0000145 	adrp	x5, 2c000 <rmm_text_end>
    23f0:	911ac0a5 	add	x5, x5, #0x6b0
    23f4:	d2800004 	mov	x4, #0x0                   	// #0
    23f8:	d2800023 	mov	x3, #0x1                   	// #1
    23fc:	d2800002 	mov	x2, #0x0                   	// #0
    2400:	aa0303e1 	mov	x1, x3
    2404:	d0000140 	adrp	x0, 2c000 <rmm_text_end>
    2408:	911b0000 	add	x0, x0, #0x6c0
    240c:	97ffffb9 	bl	22f0 <rmm_log>
		RMI_ABI_VERSION_MAJOR, RMI_ABI_VERSION_MINOR,
		RSI_ABI_VERSION_MAJOR, RSI_ABI_VERSION_MINOR,
		__DATE__, __TIME__);

	rmm_warmboot_main();
    2410:	97ffffd1 	bl	2354 <rmm_warmboot_main>

	simd_init();
    2414:	9400a552 	bl	2b95c <simd_init>

	/* Initialize the NS SIMD context for all CPUs */
	init_all_cpus_ns_simd_context();
    2418:	9400018d 	bl	2a4c <init_all_cpus_ns_simd_context>

#ifdef RMM_FPU_USE_AT_REL2
	simd_context_save(get_cpu_ns_simd_context());
#endif
	if (attestation_init() != 0) {
    241c:	94003b81 	bl	11220 <attestation_init>
    2420:	35000080 	cbnz	w0, 2430 <rmm_main+0xc4>
	 * TODO: Do not save and restore NS state. Instead after
	 * attestation_init clear FPU state.
	 */
	simd_context_restore(get_cpu_ns_simd_context());
#endif
}
    2424:	f9400bfe 	ldr	x30, [sp, #16]
    2428:	a8c253f3 	ldp	x19, x20, [sp], #32
    242c:	d65f0bff 	retaa
		WARN("Attestation init failed.\n");
    2430:	d0000140 	adrp	x0, 2c000 <rmm_text_end>
    2434:	911bc000 	add	x0, x0, #0x6f0
    2438:	97ffffae 	bl	22f0 <rmm_log>
}
    243c:	17fffffa 	b	2424 <rmm_main+0xb8>

0000000000002440 <calc_pstate>:
			       SPSR_EL2_F_BIT |
			       SPSR_EL2_I_BIT |
			       SPSR_EL2_A_BIT |
			       SPSR_EL2_D_BIT;
	return pstate;
}
    2440:	d28078a0 	mov	x0, #0x3c5                 	// #965
    2444:	d65f03c0 	ret

0000000000002448 <calc_esr_idabort>:
 * The fault status code (ESR_EL1.I/DFSC) is set to @fsc
 */
static unsigned long calc_esr_idabort(unsigned long esr_el2,
				      unsigned long spsr_el2,
				      unsigned long fsc)
{
    2448:	d503233f 	paciasp
    244c:	f81f0ffe 	str	x30, [sp, #-16]!
	 *   exception to EL2 was from either EL1 or EL0.
	 * - I/DFSC. It will be set to @fsc.
	 * - FnV. It will set to zero.
	 * - S1PTW. It will be set to zero.
	 */
	unsigned long esr_el1 = esr_el2 & ~(MASK(ESR_EL2_EC)	    |
    2450:	928097e3 	mov	x3, #0xfffffffffffffb40    	// #-1216
    2454:	f2a07fe3 	movk	x3, #0x3ff, lsl #16
    2458:	8a030003 	and	x3, x0, x3
					    MASK(ESR_EL2_ABORT_FSC) |
					    ESR_EL2_ABORT_FNV_BIT   |
					    ESR_EL2_ABORT_S1PTW_BIT);

	unsigned long ec = esr_el2 & MASK(ESR_EL2_EC);
    245c:	92661400 	and	x0, x0, #0xfc000000

	assert((ec == ESR_EL2_EC_INST_ABORT) || (ec == ESR_EL2_EC_DATA_ABORT));
    2460:	d2b00004 	mov	x4, #0x80000000            	// #2147483648
    2464:	eb04001f 	cmp	x0, x4
    2468:	1a9f07e5 	cset	w5, ne  // ne = any
    246c:	d2b20004 	mov	x4, #0x90000000            	// #2415919104
    2470:	eb04001f 	cmp	x0, x4
    2474:	1a9f07e4 	cset	w4, ne  // ne = any
    2478:	6a0400bf 	tst	w5, w4
    247c:	54000181 	b.ne	24ac <calc_esr_idabort+0x64>  // b.any
	if ((spsr_el2 & MASK(SPSR_EL2_MODE)) != SPSR_EL2_MODE_EL0t) {
    2480:	f2400c3f 	tst	x1, #0xf
    2484:	54000060 	b.eq	2490 <calc_esr_idabort+0x48>  // b.none
		ec += 1UL << ESR_EL2_EC_SHIFT;
    2488:	d2a08001 	mov	x1, #0x4000000             	// #67108864
    248c:	8b010000 	add	x0, x0, x1
	}
	esr_el1 |= ec;
    2490:	aa030000 	orr	x0, x0, x3

	/*
	 * Set the I/DFSC.
	 */
	assert((fsc & ~MASK(ESR_EL2_ABORT_FSC)) == 0UL);
    2494:	f27ae45f 	tst	x2, #0xffffffffffffffc0
    2498:	540001a1 	b.ne	24cc <calc_esr_idabort+0x84>  // b.any
	esr_el1 |= fsc;
    249c:	aa020000 	orr	x0, x0, x2
	 * Set the EA.
	 */
	esr_el1 |= ESR_EL2_ABORT_EA_BIT;

	return esr_el1;
}
    24a0:	b2770000 	orr	x0, x0, #0x200
    24a4:	f84107fe 	ldr	x30, [sp], #16
    24a8:	d65f0bff 	retaa
	assert((ec == ESR_EL2_EC_INST_ABORT) || (ec == ESR_EL2_EC_DATA_ABORT));
    24ac:	d0000143 	adrp	x3, 2c000 <rmm_text_end>
    24b0:	911c4063 	add	x3, x3, #0x710
    24b4:	d0000142 	adrp	x2, 2c000 <rmm_text_end>
    24b8:	911f2042 	add	x2, x2, #0x7c8
    24bc:	52800b61 	mov	w1, #0x5b                  	// #91
    24c0:	d0000140 	adrp	x0, 2c000 <rmm_text_end>
    24c4:	911d4000 	add	x0, x0, #0x750
    24c8:	94002999 	bl	cb2c <__assert_func>
	assert((fsc & ~MASK(ESR_EL2_ABORT_FSC)) == 0UL);
    24cc:	d0000143 	adrp	x3, 2c000 <rmm_text_end>
    24d0:	911e2063 	add	x3, x3, #0x788
    24d4:	d0000142 	adrp	x2, 2c000 <rmm_text_end>
    24d8:	911f2042 	add	x2, x2, #0x7c8
    24dc:	52800c81 	mov	w1, #0x64                  	// #100
    24e0:	d0000140 	adrp	x0, 2c000 <rmm_text_end>
    24e4:	911d4000 	add	x0, x0, #0x750
    24e8:	94002991 	bl	cb2c <__assert_func>

00000000000024ec <calc_vector_entry>:
	if ((spsr & MASK(SPSR_EL2_MODE)) == SPSR_EL2_MODE_EL1h) {
    24ec:	92400c22 	and	x2, x1, #0xf
    24f0:	f100145f 	cmp	x2, #0x5
    24f4:	54000220 	b.eq	2538 <calc_vector_entry+0x4c>  // b.none
	} else if ((spsr & MASK(SPSR_EL2_MODE)) == SPSR_EL2_MODE_EL1t) {
    24f8:	f100105f 	cmp	x2, #0x4
    24fc:	54000240 	b.eq	2544 <calc_vector_entry+0x58>  // b.none
	} else if ((spsr & MASK(SPSR_EL2_MODE)) == SPSR_EL2_MODE_EL0t) {
    2500:	b5000082 	cbnz	x2, 2510 <calc_vector_entry+0x24>
		if ((spsr & MASK(SPSR_EL2_nRW)) == SPSR_EL2_nRW_AARCH64) {
    2504:	37200241 	tbnz	w1, #4, 254c <calc_vector_entry+0x60>
			offset = VBAR_LEL_AA64_OFFSET;
    2508:	d2808001 	mov	x1, #0x400                 	// #1024
    250c:	1400000c 	b	253c <calc_vector_entry+0x50>
{
    2510:	d503233f 	paciasp
    2514:	f81f0ffe 	str	x30, [sp, #-16]!
		assert(false);
    2518:	d0000143 	adrp	x3, 2c000 <rmm_text_end>
    251c:	91010063 	add	x3, x3, #0x40
    2520:	d0000142 	adrp	x2, 2c000 <rmm_text_end>
    2524:	911ec042 	add	x2, x2, #0x7b0
    2528:	52800441 	mov	w1, #0x22                  	// #34
    252c:	d0000140 	adrp	x0, 2c000 <rmm_text_end>
    2530:	911d4000 	add	x0, x0, #0x750
    2534:	9400297e 	bl	cb2c <__assert_func>
		offset = VBAR_CEL_SP_ELx_OFFSET;
    2538:	d2804001 	mov	x1, #0x200                 	// #512
}
    253c:	8b000020 	add	x0, x1, x0
    2540:	d65f03c0 	ret
		offset = VBAR_CEL_SP_EL0_OFFSET;
    2544:	d2800001 	mov	x1, #0x0                   	// #0
    2548:	17fffffd 	b	253c <calc_vector_entry+0x50>
			offset = VBAR_LEL_AA32_OFFSET;
    254c:	d280c001 	mov	x1, #0x600                 	// #1536
    2550:	17fffffb 	b	253c <calc_vector_entry+0x50>

0000000000002554 <inject_sync_idabort>:
/*
 * Inject the Synchronous Instruction or Data Abort into the current REC.
 * The I/DFSC field in the ESR_EL1 is set to @fsc
 */
void inject_sync_idabort(unsigned long fsc)
{
    2554:	d503233f 	paciasp
    2558:	a9bd53f3 	stp	x19, x20, [sp, #-48]!
    255c:	a9015bf5 	stp	x21, x22, [sp, #16]
    2560:	a9027bf7 	stp	x23, x30, [sp, #32]
    2564:	aa0003e2 	mov	x2, x0
DEFINE_SYSREG_RW_FUNCS(esr_el2)
    2568:	d53c5200 	mrs	x0, esr_el2
DEFINE_SYSREG_RW_FUNCS(far_el2)
    256c:	d53c6017 	mrs	x23, far_el2
DEFINE_SYSREG_RW_FUNCS(elr_el2)
    2570:	d53c4036 	mrs	x22, elr_el2
DEFINE_SYSREG_RW_FUNCS(spsr_el2)
    2574:	d53c4015 	mrs	x21, spsr_el2
DEFINE_SYSREG_RW_FUNCS(vbar_el12)
    2578:	d53dc013 	mrs	x19, vbar_el12
	unsigned long far_el2 = read_far_el2();
	unsigned long elr_el2 = read_elr_el2();
	unsigned long spsr_el2 = read_spsr_el2();
	unsigned long vbar_el2 = read_vbar_el12();

	unsigned long esr_el1 = calc_esr_idabort(esr_el2, spsr_el2, fsc);
    257c:	aa1503e1 	mov	x1, x21
    2580:	97ffffb2 	bl	2448 <calc_esr_idabort>
    2584:	aa0003f4 	mov	x20, x0
	unsigned long pc = calc_vector_entry(vbar_el2, spsr_el2);
    2588:	aa1503e1 	mov	x1, x21
    258c:	aa1303e0 	mov	x0, x19
    2590:	97ffffd7 	bl	24ec <calc_vector_entry>
    2594:	aa0003f3 	mov	x19, x0
	unsigned long pstate = calc_pstate();
    2598:	97ffffaa 	bl	2440 <calc_pstate>
DEFINE_SYSREG_RW_FUNCS(far_el12)
    259c:	d51d6017 	msr	far_el12, x23
DEFINE_SYSREG_RW_FUNCS(elr_el12)
    25a0:	d51d4036 	msr	elr_el12, x22
DEFINE_SYSREG_RW_FUNCS(spsr_el12)
    25a4:	d51d4015 	msr	spsr_el12, x21
DEFINE_SYSREG_RW_FUNCS(esr_el12)
    25a8:	d51d5214 	msr	esr_el12, x20
DEFINE_SYSREG_RW_FUNCS(elr_el2)
    25ac:	d51c4033 	msr	elr_el2, x19
DEFINE_SYSREG_RW_FUNCS(spsr_el2)
    25b0:	d51c4000 	msr	spsr_el2, x0
	write_elr_el12(elr_el2);
	write_spsr_el12(spsr_el2);
	write_esr_el12(esr_el1);
	write_elr_el2(pc);
	write_spsr_el2(pstate);
}
    25b4:	a9415bf5 	ldp	x21, x22, [sp, #16]
    25b8:	a9427bf7 	ldp	x23, x30, [sp, #32]
    25bc:	a8c353f3 	ldp	x19, x20, [sp], #48
    25c0:	d65f0bff 	retaa

00000000000025c4 <inject_sync_idabort_rec>:
/*
 * Inject the Synchronous Instruction or Data Abort into @rec.
 * The I/DFSC field in the ESR_EL1 is set to @fsc
 */
void inject_sync_idabort_rec(struct rec *rec, unsigned long fsc)
{
    25c4:	d503233f 	paciasp
    25c8:	a9be53f3 	stp	x19, x20, [sp, #-32]!
    25cc:	f9000bfe 	str	x30, [sp, #16]
    25d0:	aa0003f3 	mov	x19, x0
	rec->sysregs.far_el1 = rec->last_run_info.far;
    25d4:	f9421000 	ldr	x0, [x0, #1056]
    25d8:	f9010660 	str	x0, [x19, #520]
	rec->sysregs.elr_el1 = rec->pc;
    25dc:	f940b660 	ldr	x0, [x19, #360]
    25e0:	f900c660 	str	x0, [x19, #392]
	rec->sysregs.spsr_el1 = rec->pstate;
    25e4:	f940ba74 	ldr	x20, [x19, #368]
    25e8:	f900ca74 	str	x20, [x19, #400]
	rec->sysregs.esr_el1 = calc_esr_idabort(rec->last_run_info.esr,
    25ec:	aa0103e2 	mov	x2, x1
    25f0:	aa1403e1 	mov	x1, x20
    25f4:	f9420a60 	ldr	x0, [x19, #1040]
    25f8:	97ffff94 	bl	2448 <calc_esr_idabort>
    25fc:	f900fa60 	str	x0, [x19, #496]
						rec->pstate, fsc);
	rec->pc = calc_vector_entry(rec->sysregs.vbar_el1, rec->pstate);
    2600:	aa1403e1 	mov	x1, x20
    2604:	f9410e60 	ldr	x0, [x19, #536]
    2608:	97ffffb9 	bl	24ec <calc_vector_entry>
    260c:	f900b660 	str	x0, [x19, #360]
	rec->pstate = calc_pstate();
    2610:	97ffff8c 	bl	2440 <calc_pstate>
    2614:	f900ba60 	str	x0, [x19, #368]
}
    2618:	f9400bfe 	ldr	x30, [sp, #16]
    261c:	a8c253f3 	ldp	x19, x20, [sp], #32
    2620:	d65f0bff 	retaa

0000000000002624 <realm_inject_undef_abort>:

/*
 * Inject the Undefined Synchronous Exception into the current REC.
 */
void realm_inject_undef_abort(void)
{
    2624:	d503233f 	paciasp
    2628:	a9be53f3 	stp	x19, x20, [sp, #-32]!
    262c:	a9017bf5 	stp	x21, x30, [sp, #16]
DEFINE_SYSREG_RW_FUNCS(elr_el2)
    2630:	d53c4035 	mrs	x21, elr_el2
DEFINE_SYSREG_RW_FUNCS(spsr_el2)
    2634:	d53c4014 	mrs	x20, spsr_el2
DEFINE_SYSREG_RW_FUNCS(vbar_el12)
    2638:	d53dc000 	mrs	x0, vbar_el12
	unsigned long esr = MASK(ESR_EL2_IL) | ESR_EL2_EC_UNKNOWN;
	unsigned long elr = read_elr_el2();
	unsigned long spsr = read_spsr_el2();
	unsigned long vbar = read_vbar_el12();

	unsigned long pc = calc_vector_entry(vbar, spsr);
    263c:	aa1403e1 	mov	x1, x20
    2640:	97ffffab 	bl	24ec <calc_vector_entry>
    2644:	aa0003f3 	mov	x19, x0
	unsigned long pstate = calc_pstate();
    2648:	97ffff7e 	bl	2440 <calc_pstate>
DEFINE_SYSREG_RW_FUNCS(elr_el12)
    264c:	d51d4035 	msr	elr_el12, x21
DEFINE_SYSREG_RW_FUNCS(spsr_el12)
    2650:	d51d4014 	msr	spsr_el12, x20
DEFINE_SYSREG_RW_FUNCS(esr_el12)
    2654:	d2a04001 	mov	x1, #0x2000000             	// #33554432
    2658:	d51d5201 	msr	esr_el12, x1
DEFINE_SYSREG_RW_FUNCS(elr_el2)
    265c:	d51c4033 	msr	elr_el2, x19
DEFINE_SYSREG_RW_FUNCS(spsr_el2)
    2660:	d51c4000 	msr	spsr_el2, x0
	write_spsr_el12(spsr);
	write_esr_el12(esr);

	write_elr_el2(pc);
	write_spsr_el2(pstate);
}
    2664:	a9417bf5 	ldp	x21, x30, [sp, #16]
    2668:	a8c253f3 	ldp	x19, x20, [sp], #32
    266c:	d65f0bff 	retaa

0000000000002670 <save_sysreg_state>:
DEFINE_SYSREG_RW_FUNCS(sp_el0)
    2670:	d5384101 	mrs	x1, sp_el0
static struct simd_context g_ns_simd_ctx[MAX_CPUS]
			__aligned(CACHE_WRITEBACK_GRANULE);

static void save_sysreg_state(struct sysreg_state *sysregs)
{
	sysregs->sp_el0 = read_sp_el0();
    2674:	f9000001 	str	x1, [x0]
DEFINE_SYSREG_RW_FUNCS(sp_el1)
    2678:	d53c4101 	mrs	x1, sp_el1
	sysregs->sp_el1 = read_sp_el1();
    267c:	f9000401 	str	x1, [x0, #8]
DEFINE_SYSREG_RW_FUNCS(elr_el12)
    2680:	d53d4021 	mrs	x1, elr_el12
	sysregs->elr_el1 = read_elr_el12();
    2684:	f9000801 	str	x1, [x0, #16]
DEFINE_SYSREG_RW_FUNCS(spsr_el12)
    2688:	d53d4001 	mrs	x1, spsr_el12
	sysregs->spsr_el1 = read_spsr_el12();
    268c:	f9000c01 	str	x1, [x0, #24]
DEFINE_SYSREG_RW_FUNCS(pmcr_el0)
    2690:	d53b9c01 	mrs	x1, pmcr_el0
	sysregs->pmcr_el0 = read_pmcr_el0();
    2694:	f9001001 	str	x1, [x0, #32]
DEFINE_SYSREG_RW_FUNCS(tpidrro_el0)
    2698:	d53bd061 	mrs	x1, tpidrro_el0
	sysregs->tpidrro_el0 = read_tpidrro_el0();
    269c:	f9001401 	str	x1, [x0, #40]
DEFINE_SYSREG_RW_FUNCS(tpidr_el0)
    26a0:	d53bd041 	mrs	x1, tpidr_el0
	sysregs->tpidr_el0 = read_tpidr_el0();
    26a4:	f9001801 	str	x1, [x0, #48]
DEFINE_SYSREG_RW_FUNCS(csselr_el1)
    26a8:	d53a0001 	mrs	x1, csselr_el1
	sysregs->csselr_el1 = read_csselr_el1();
    26ac:	f9001c01 	str	x1, [x0, #56]
DEFINE_SYSREG_RW_FUNCS(sctlr_el12)
    26b0:	d53d1001 	mrs	x1, sctlr_el12
	sysregs->sctlr_el1 = read_sctlr_el12();
    26b4:	f9002001 	str	x1, [x0, #64]
DEFINE_SYSREG_RW_FUNCS(actlr_el1)
    26b8:	d5381021 	mrs	x1, actlr_el1
	sysregs->actlr_el1 = read_actlr_el1();
    26bc:	f9002401 	str	x1, [x0, #72]
DEFINE_SYSREG_RW_FUNCS(cpacr_el12)
    26c0:	d53d1041 	mrs	x1, cpacr_el12
	sysregs->cpacr_el1 = read_cpacr_el12();
    26c4:	f9002801 	str	x1, [x0, #80]
DEFINE_SYSREG_RW_FUNCS(ttbr0_el12)
    26c8:	d53d2001 	mrs	x1, ttbr0_el12
	sysregs->ttbr0_el1 = read_ttbr0_el12();
    26cc:	f9003001 	str	x1, [x0, #96]
DEFINE_SYSREG_RW_FUNCS(ttbr1_el12)
    26d0:	d53d2021 	mrs	x1, ttbr1_el12
	sysregs->ttbr1_el1 = read_ttbr1_el12();
    26d4:	f9003401 	str	x1, [x0, #104]
DEFINE_SYSREG_RW_FUNCS(tcr_el12)
    26d8:	d53d2041 	mrs	x1, tcr_el12
	sysregs->tcr_el1 = read_tcr_el12();
    26dc:	f9003801 	str	x1, [x0, #112]
DEFINE_SYSREG_RW_FUNCS(esr_el12)
    26e0:	d53d5201 	mrs	x1, esr_el12
	sysregs->esr_el1 = read_esr_el12();
    26e4:	f9003c01 	str	x1, [x0, #120]
DEFINE_SYSREG_RW_FUNCS(afsr0_el12)
    26e8:	d53d5101 	mrs	x1, afsr0_el12
	sysregs->afsr0_el1 = read_afsr0_el12();
    26ec:	f9004001 	str	x1, [x0, #128]
DEFINE_SYSREG_RW_FUNCS(afsr1_el12)
    26f0:	d53d5121 	mrs	x1, afsr1_el12
	sysregs->afsr1_el1 = read_afsr1_el12();
    26f4:	f9004401 	str	x1, [x0, #136]
DEFINE_SYSREG_RW_FUNCS(far_el12)
    26f8:	d53d6001 	mrs	x1, far_el12
	sysregs->far_el1 = read_far_el12();
    26fc:	f9004801 	str	x1, [x0, #144]
DEFINE_SYSREG_RW_FUNCS(mair_el12)
    2700:	d53da201 	mrs	x1, mair_el12
	sysregs->mair_el1 = read_mair_el12();
    2704:	f9004c01 	str	x1, [x0, #152]
DEFINE_SYSREG_RW_FUNCS(vbar_el12)
    2708:	d53dc001 	mrs	x1, vbar_el12
	sysregs->vbar_el1 = read_vbar_el12();
    270c:	f9005001 	str	x1, [x0, #160]
DEFINE_SYSREG_RW_FUNCS(contextidr_el12)
    2710:	d53dd021 	mrs	x1, contextidr_el12

	sysregs->contextidr_el1 = read_contextidr_el12();
    2714:	f9005401 	str	x1, [x0, #168]
DEFINE_SYSREG_RW_FUNCS(tpidr_el1)
    2718:	d538d081 	mrs	x1, tpidr_el1
	sysregs->tpidr_el1 = read_tpidr_el1();
    271c:	f9005801 	str	x1, [x0, #176]
DEFINE_SYSREG_RW_FUNCS(amair_el12)
    2720:	d53da301 	mrs	x1, amair_el12
	sysregs->amair_el1 = read_amair_el12();
    2724:	f9005c01 	str	x1, [x0, #184]
DEFINE_SYSREG_RW_FUNCS(cntkctl_el12)
    2728:	d53de101 	mrs	x1, cntkctl_el12
	sysregs->cntkctl_el1 = read_cntkctl_el12();
    272c:	f9006001 	str	x1, [x0, #192]
DEFINE_SYSREG_RW_FUNCS(par_el1)
    2730:	d5387401 	mrs	x1, par_el1
	sysregs->par_el1 = read_par_el1();
    2734:	f9006401 	str	x1, [x0, #200]
DEFINE_SYSREG_RW_FUNCS(mdscr_el1)
    2738:	d5300241 	mrs	x1, mdscr_el1
	sysregs->mdscr_el1 = read_mdscr_el1();
    273c:	f9006801 	str	x1, [x0, #208]
DEFINE_SYSREG_RW_FUNCS(mdccint_el1)
    2740:	d5300201 	mrs	x1, mdccint_el1
	sysregs->mdccint_el1 = read_mdccint_el1();
    2744:	f9006c01 	str	x1, [x0, #216]
DEFINE_SYSREG_RW_FUNCS(disr_el1)
    2748:	d538c121 	mrs	x1, disr_el1
	sysregs->disr_el1 = read_disr_el1();
    274c:	f9007001 	str	x1, [x0, #224]
DEFINE_SYSREG_RW_FUNCS(cntp_ctl_el02)
DEFINE_SYSREG_RW_FUNCS(cntp_cval_el02)
DEFINE_SYSREG_RW_FUNCS(cntv_ctl_el02)
DEFINE_SYSREG_RW_FUNCS(cntv_cval_el02)
DEFINE_SYSREG_RW_FUNCS(cntvoff_el2)
    2750:	d53ce061 	mrs	x1, cntvoff_el2
	MPAM(sysregs->mpam0_el1 = read_mpam0_el1();)
	/* Timer registers */
	ECV(sysregs->cntpoff_el2 = read_cntpoff_el2();)
	sysregs->cntvoff_el2 = read_cntvoff_el2();
    2754:	f9007c01 	str	x1, [x0, #248]
DEFINE_SYSREG_RW_FUNCS(cntp_ctl_el02)
    2758:	d53de221 	mrs	x1, cntp_ctl_el02
	sysregs->cntp_ctl_el0 = read_cntp_ctl_el02();
    275c:	f9008401 	str	x1, [x0, #264]
DEFINE_SYSREG_RW_FUNCS(cntp_cval_el02)
    2760:	d53de241 	mrs	x1, cntp_cval_el02
	sysregs->cntp_cval_el0 = read_cntp_cval_el02();
    2764:	f9008801 	str	x1, [x0, #272]
DEFINE_SYSREG_RW_FUNCS(cntv_ctl_el02)
    2768:	d53de321 	mrs	x1, cntv_ctl_el02
	sysregs->cntv_ctl_el0 = read_cntv_ctl_el02();
    276c:	f9008c01 	str	x1, [x0, #280]
DEFINE_SYSREG_RW_FUNCS(cntv_cval_el02)
    2770:	d53de341 	mrs	x1, cntv_cval_el02
	sysregs->cntv_cval_el0 = read_cntv_cval_el02();
    2774:	f9009001 	str	x1, [x0, #288]
}
    2778:	d65f03c0 	ret

000000000000277c <restore_sysreg_state>:
	}
}

static void restore_sysreg_state(struct sysreg_state *sysregs)
{
	write_sp_el0(sysregs->sp_el0);
    277c:	f9400001 	ldr	x1, [x0]
DEFINE_SYSREG_RW_FUNCS(sp_el0)
    2780:	d5184101 	msr	sp_el0, x1
	write_sp_el1(sysregs->sp_el1);
    2784:	f9400401 	ldr	x1, [x0, #8]
DEFINE_SYSREG_RW_FUNCS(sp_el1)
    2788:	d51c4101 	msr	sp_el1, x1
	write_elr_el12(sysregs->elr_el1);
    278c:	f9400801 	ldr	x1, [x0, #16]
DEFINE_SYSREG_RW_FUNCS(elr_el12)
    2790:	d51d4021 	msr	elr_el12, x1
	write_spsr_el12(sysregs->spsr_el1);
    2794:	f9400c01 	ldr	x1, [x0, #24]
DEFINE_SYSREG_RW_FUNCS(spsr_el12)
    2798:	d51d4001 	msr	spsr_el12, x1
	write_pmcr_el0(sysregs->pmcr_el0);
    279c:	f9401001 	ldr	x1, [x0, #32]
DEFINE_SYSREG_RW_FUNCS(pmcr_el0)
    27a0:	d51b9c01 	msr	pmcr_el0, x1
	write_tpidrro_el0(sysregs->tpidrro_el0);
    27a4:	f9401401 	ldr	x1, [x0, #40]
DEFINE_SYSREG_RW_FUNCS(tpidrro_el0)
    27a8:	d51bd061 	msr	tpidrro_el0, x1
	write_tpidr_el0(sysregs->tpidr_el0);
    27ac:	f9401801 	ldr	x1, [x0, #48]
DEFINE_SYSREG_RW_FUNCS(tpidr_el0)
    27b0:	d51bd041 	msr	tpidr_el0, x1
	write_csselr_el1(sysregs->csselr_el1);
    27b4:	f9401c01 	ldr	x1, [x0, #56]
DEFINE_SYSREG_RW_FUNCS(csselr_el1)
    27b8:	d51a0001 	msr	csselr_el1, x1
	write_sctlr_el12(sysregs->sctlr_el1);
    27bc:	f9402001 	ldr	x1, [x0, #64]
DEFINE_SYSREG_RW_FUNCS(sctlr_el12)
    27c0:	d51d1001 	msr	sctlr_el12, x1
	write_actlr_el1(sysregs->actlr_el1);
    27c4:	f9402401 	ldr	x1, [x0, #72]
DEFINE_SYSREG_RW_FUNCS(actlr_el1)
    27c8:	d5181021 	msr	actlr_el1, x1
	write_cpacr_el12(sysregs->cpacr_el1);
    27cc:	f9402801 	ldr	x1, [x0, #80]
DEFINE_SYSREG_RW_FUNCS(cpacr_el12)
    27d0:	d51d1041 	msr	cpacr_el12, x1
	write_ttbr0_el12(sysregs->ttbr0_el1);
    27d4:	f9403001 	ldr	x1, [x0, #96]
DEFINE_SYSREG_RW_FUNCS(ttbr0_el12)
    27d8:	d51d2001 	msr	ttbr0_el12, x1
	write_ttbr1_el12(sysregs->ttbr1_el1);
    27dc:	f9403401 	ldr	x1, [x0, #104]
DEFINE_SYSREG_RW_FUNCS(ttbr1_el12)
    27e0:	d51d2021 	msr	ttbr1_el12, x1
	write_tcr_el12(sysregs->tcr_el1);
    27e4:	f9403801 	ldr	x1, [x0, #112]
DEFINE_SYSREG_RW_FUNCS(tcr_el12)
    27e8:	d51d2041 	msr	tcr_el12, x1
	write_esr_el12(sysregs->esr_el1);
    27ec:	f9403c01 	ldr	x1, [x0, #120]
DEFINE_SYSREG_RW_FUNCS(esr_el12)
    27f0:	d51d5201 	msr	esr_el12, x1
	write_afsr0_el12(sysregs->afsr0_el1);
    27f4:	f9404001 	ldr	x1, [x0, #128]
DEFINE_SYSREG_RW_FUNCS(afsr0_el12)
    27f8:	d51d5101 	msr	afsr0_el12, x1
	write_afsr1_el12(sysregs->afsr1_el1);
    27fc:	f9404401 	ldr	x1, [x0, #136]
DEFINE_SYSREG_RW_FUNCS(afsr1_el12)
    2800:	d51d5121 	msr	afsr1_el12, x1
	write_far_el12(sysregs->far_el1);
    2804:	f9404801 	ldr	x1, [x0, #144]
DEFINE_SYSREG_RW_FUNCS(far_el12)
    2808:	d51d6001 	msr	far_el12, x1
	write_mair_el12(sysregs->mair_el1);
    280c:	f9404c01 	ldr	x1, [x0, #152]
DEFINE_SYSREG_RW_FUNCS(mair_el12)
    2810:	d51da201 	msr	mair_el12, x1
	write_vbar_el12(sysregs->vbar_el1);
    2814:	f9405001 	ldr	x1, [x0, #160]
DEFINE_SYSREG_RW_FUNCS(vbar_el12)
    2818:	d51dc001 	msr	vbar_el12, x1

	write_contextidr_el12(sysregs->contextidr_el1);
    281c:	f9405401 	ldr	x1, [x0, #168]
DEFINE_SYSREG_RW_FUNCS(contextidr_el12)
    2820:	d51dd021 	msr	contextidr_el12, x1
	write_tpidr_el1(sysregs->tpidr_el1);
    2824:	f9405801 	ldr	x1, [x0, #176]
DEFINE_SYSREG_RW_FUNCS(tpidr_el1)
    2828:	d518d081 	msr	tpidr_el1, x1
	write_amair_el12(sysregs->amair_el1);
    282c:	f9405c01 	ldr	x1, [x0, #184]
DEFINE_SYSREG_RW_FUNCS(amair_el12)
    2830:	d51da301 	msr	amair_el12, x1
	write_cntkctl_el12(sysregs->cntkctl_el1);
    2834:	f9406001 	ldr	x1, [x0, #192]
DEFINE_SYSREG_RW_FUNCS(cntkctl_el12)
    2838:	d51de101 	msr	cntkctl_el12, x1
	write_par_el1(sysregs->par_el1);
    283c:	f9406401 	ldr	x1, [x0, #200]
DEFINE_SYSREG_RW_FUNCS(par_el1)
    2840:	d5187401 	msr	par_el1, x1
	write_mdscr_el1(sysregs->mdscr_el1);
    2844:	f9406801 	ldr	x1, [x0, #208]
DEFINE_SYSREG_RW_FUNCS(mdscr_el1)
    2848:	d5100241 	msr	mdscr_el1, x1
	write_mdccint_el1(sysregs->mdccint_el1);
    284c:	f9406c01 	ldr	x1, [x0, #216]
DEFINE_SYSREG_RW_FUNCS(mdccint_el1)
    2850:	d5100201 	msr	mdccint_el1, x1
	write_disr_el1(sysregs->disr_el1);
    2854:	f9407001 	ldr	x1, [x0, #224]
DEFINE_SYSREG_RW_FUNCS(disr_el1)
    2858:	d518c121 	msr	disr_el1, x1
	MPAM(write_mpam0_el1(sysregs->mpam0_el1);)
	write_vmpidr_el2(sysregs->vmpidr_el2);
    285c:	f9410001 	ldr	x1, [x0, #512]
DEFINE_SYSREG_RW_FUNCS(vmpidr_el2)
    2860:	d51c00a1 	msr	vmpidr_el2, x1

	/* Timer registers */
	ECV(write_cntpoff_el2(sysregs->cntpoff_el2);)
	write_cntvoff_el2(sysregs->cntvoff_el2);
    2864:	f9407c01 	ldr	x1, [x0, #248]
DEFINE_SYSREG_RW_FUNCS(cntvoff_el2)
    2868:	d51ce061 	msr	cntvoff_el2, x1
	 * Restore CNTx_CVAL registers before CNTx_CTL to avoid
	 * raising the interrupt signal briefly before lowering
	 * it again due to some expired CVAL left in the timer
	 * register.
	 */
	write_cntp_cval_el02(sysregs->cntp_cval_el0);
    286c:	f9408801 	ldr	x1, [x0, #272]
DEFINE_SYSREG_RW_FUNCS(cntp_cval_el02)
    2870:	d51de241 	msr	cntp_cval_el02, x1
	write_cntp_ctl_el02(sysregs->cntp_ctl_el0);
    2874:	f9408401 	ldr	x1, [x0, #264]
DEFINE_SYSREG_RW_FUNCS(cntp_ctl_el02)
    2878:	d51de221 	msr	cntp_ctl_el02, x1
	write_cntv_cval_el02(sysregs->cntv_cval_el0);
    287c:	f9409001 	ldr	x1, [x0, #288]
DEFINE_SYSREG_RW_FUNCS(cntv_cval_el02)
    2880:	d51de341 	msr	cntv_cval_el02, x1
	write_cntv_ctl_el02(sysregs->cntv_ctl_el0);
    2884:	f9408c00 	ldr	x0, [x0, #280]
DEFINE_SYSREG_RW_FUNCS(cntv_ctl_el02)
    2888:	d51de320 	msr	cntv_ctl_el02, x0
}
    288c:	d65f03c0 	ret

0000000000002890 <configure_realm_stage2>:

static void configure_realm_stage2(struct rec *rec)
{
	write_vtcr_el2(rec->common_sysregs.vtcr_el2);
    2890:	f941cc01 	ldr	x1, [x0, #920]
DEFINE_SYSREG_RW_FUNCS(vtcr_el2)
    2894:	d51c2141 	msr	vtcr_el2, x1
	write_vttbr_el2(rec->common_sysregs.vttbr_el2);
    2898:	f941c800 	ldr	x0, [x0, #912]
DEFINE_SYSREG_RW_FUNCS(vttbr_el2)
    289c:	d51c2100 	msr	vttbr_el2, x0
}
    28a0:	d65f03c0 	ret

00000000000028a4 <activate_events>:
static void activate_events(struct rec *rec)
{
	/*
	 * The only event that may be activated at the Realm is the SError.
	 */
	if (rec->serror_info.inject) {
    28a4:	3953a001 	ldrb	w1, [x0, #1256]
    28a8:	340000e1 	cbz	w1, 28c4 <activate_events+0x20>
		write_vsesr_el2(rec->serror_info.vsesr_el2);
    28ac:	f9427001 	ldr	x1, [x0, #1248]
DEFINE_SYSREG_RW_FUNCS(vsesr_el2)
    28b0:	d51c5261 	msr	vsesr_el2, x1
		write_hcr_el2(rec->sysregs.hcr_el2 | HCR_VSE);
    28b4:	f941c001 	ldr	x1, [x0, #896]
    28b8:	b2780021 	orr	x1, x1, #0x100
DEFINE_SYSREG_RW_FUNCS(hcr_el2)
    28bc:	d51c1101 	msr	hcr_el2, x1
		rec->serror_info.inject = false;
    28c0:	3913a01f 	strb	wzr, [x0, #1256]
	}
}
    28c4:	d65f03c0 	ret

00000000000028c8 <save_ns_state>:
{
    28c8:	d503233f 	paciasp
    28cc:	a9be53f3 	stp	x19, x20, [sp, #-32]!
    28d0:	f9000bfe 	str	x30, [sp, #16]
    28d4:	aa0003f3 	mov	x19, x0
	struct ns_state *ns_state = rec->ns;
    28d8:	f9421414 	ldr	x20, [x0, #1064]
	save_sysreg_state(&ns_state->sysregs);
    28dc:	aa1403e0 	mov	x0, x20
    28e0:	97ffff64 	bl	2670 <save_sysreg_state>
DEFINE_SYSREG_RW_FUNCS(cnthctl_el2)
    28e4:	d53ce100 	mrs	x0, cnthctl_el2
	ns_state->sysregs.cnthctl_el2 = read_cnthctl_el2();
    28e8:	f9007a80 	str	x0, [x20, #240]
DEFINE_RENAME_SYSREG_RW_FUNCS(cntpoff_el2, CNTPOFF_EL2)

/*******************************************************************************
 * Interrupt Controller register accessor prototypes
 ******************************************************************************/
DEFINE_RENAME_SYSREG_RW_FUNCS(icc_sre_el2, ICC_SRE_EL2)
    28ec:	d53cc9a0 	mrs	x0, icc_sre_el2
	ns_state->icc_sre_el2 = read_icc_sre_el2();
    28f0:	f9011280 	str	x0, [x20, #544]
	if (rec->realm_info.pmu_enabled) {
    28f4:	394fe260 	ldrb	w0, [x19, #1016]
    28f8:	35000080 	cbnz	w0, 2908 <save_ns_state+0x40>
}
    28fc:	f9400bfe 	ldr	x30, [sp, #16]
    2900:	a8c253f3 	ldp	x19, x20, [sp], #32
    2904:	d65f0bff 	retaa
		pmu_save_state(ns_state->pmu, rec->realm_info.pmu_num_ctrs);
    2908:	b943fe61 	ldr	w1, [x19, #1020]
    290c:	f9411680 	ldr	x0, [x20, #552]
    2910:	9400a042 	bl	2aa18 <pmu_save_state>
}
    2914:	17fffffa 	b	28fc <save_ns_state+0x34>

0000000000002918 <restore_realm_state>:
{
    2918:	d503233f 	paciasp
    291c:	a9bf7bf3 	stp	x19, x30, [sp, #-16]!
    2920:	aa0003f3 	mov	x19, x0
	write_cnthctl_el2(rec->sysregs.cnthctl_el2);
    2924:	f9413400 	ldr	x0, [x0, #616]
DEFINE_SYSREG_RW_FUNCS(cnthctl_el2)
    2928:	d51ce100 	msr	cnthctl_el2, x0
DEFINE_SYSOP_FUNC(isb)
    292c:	d5033fdf 	isb
	restore_sysreg_state(&rec->sysregs);
    2930:	9105e260 	add	x0, x19, #0x178
    2934:	97ffff92 	bl	277c <restore_sysreg_state>
	write_elr_el2(rec->pc);
    2938:	f940b660 	ldr	x0, [x19, #360]
DEFINE_SYSREG_RW_FUNCS(elr_el2)
    293c:	d51c4020 	msr	elr_el2, x0
	write_spsr_el2(rec->pstate);
    2940:	f940ba60 	ldr	x0, [x19, #368]
DEFINE_SYSREG_RW_FUNCS(spsr_el2)
    2944:	d51c4000 	msr	spsr_el2, x0
	write_hcr_el2(rec->sysregs.hcr_el2);
    2948:	f941c260 	ldr	x0, [x19, #896]
DEFINE_SYSREG_RW_FUNCS(hcr_el2)
    294c:	d51c1100 	msr	hcr_el2, x0
	write_mdcr_el2(rec->common_sysregs.mdcr_el2);
    2950:	f941d660 	ldr	x0, [x19, #936]
DEFINE_SYSREG_RW_FUNCS(mdcr_el2)
    2954:	d51c1120 	msr	mdcr_el2, x0
	gic_restore_state(&rec->sysregs.gicstate);
    2958:	910a8260 	add	x0, x19, #0x2a0
    295c:	94004786 	bl	14774 <gic_restore_state>
	configure_realm_stage2(rec);
    2960:	aa1303e0 	mov	x0, x19
    2964:	97ffffcb 	bl	2890 <configure_realm_stage2>
	if (rec->realm_info.pmu_enabled) {
    2968:	394fe260 	ldrb	w0, [x19, #1016]
    296c:	35000060 	cbnz	w0, 2978 <restore_realm_state+0x60>
}
    2970:	a8c17bf3 	ldp	x19, x30, [sp], #16
    2974:	d65f0bff 	retaa
		pmu_restore_state(rec->aux_data.pmu,
    2978:	b943fe61 	ldr	w1, [x19, #1020]
    297c:	f9426260 	ldr	x0, [x19, #1216]
    2980:	9400a0ef 	bl	2ad3c <pmu_restore_state>
}
    2984:	17fffffb 	b	2970 <restore_realm_state+0x58>

0000000000002988 <restore_ns_state>:
{
    2988:	d503233f 	paciasp
    298c:	a9be53f3 	stp	x19, x20, [sp, #-32]!
    2990:	f9000bfe 	str	x30, [sp, #16]
    2994:	aa0003f3 	mov	x19, x0
	struct ns_state *ns_state = rec->ns;
    2998:	f9421414 	ldr	x20, [x0, #1064]
	restore_sysreg_state(&ns_state->sysregs);
    299c:	aa1403e0 	mov	x0, x20
    29a0:	97ffff77 	bl	277c <restore_sysreg_state>
	write_cnthctl_el2(ns_state->sysregs.cnthctl_el2);
    29a4:	f9407a80 	ldr	x0, [x20, #240]
DEFINE_SYSREG_RW_FUNCS(cnthctl_el2)
    29a8:	d51ce100 	msr	cnthctl_el2, x0
	write_icc_sre_el2(ns_state->icc_sre_el2);
    29ac:	f9411280 	ldr	x0, [x20, #544]
DEFINE_RENAME_SYSREG_RW_FUNCS(icc_sre_el2, ICC_SRE_EL2)
    29b0:	d51cc9a0 	msr	icc_sre_el2, x0
	if (rec->realm_info.pmu_enabled) {
    29b4:	394fe260 	ldrb	w0, [x19, #1016]
    29b8:	35000080 	cbnz	w0, 29c8 <restore_ns_state+0x40>
}
    29bc:	f9400bfe 	ldr	x30, [sp, #16]
    29c0:	a8c253f3 	ldp	x19, x20, [sp], #32
    29c4:	d65f0bff 	retaa
		pmu_restore_state(ns_state->pmu,
    29c8:	b943fe61 	ldr	w1, [x19, #1020]
    29cc:	f9411680 	ldr	x0, [x20, #552]
    29d0:	9400a0db 	bl	2ad3c <pmu_restore_state>
}
    29d4:	17fffffa 	b	29bc <restore_ns_state+0x34>

00000000000029d8 <save_realm_state>:
{
    29d8:	d503233f 	paciasp
    29dc:	a9be53f3 	stp	x19, x20, [sp, #-32]!
    29e0:	f9000bfe 	str	x30, [sp, #16]
    29e4:	aa0003f3 	mov	x19, x0
    29e8:	aa0103f4 	mov	x20, x1
	save_sysreg_state(&rec->sysregs);
    29ec:	9105e000 	add	x0, x0, #0x178
    29f0:	97ffff20 	bl	2670 <save_sysreg_state>
DEFINE_SYSREG_RW_FUNCS(elr_el2)
    29f4:	d53c4020 	mrs	x0, elr_el2
	rec->pc = read_elr_el2();
    29f8:	f900b660 	str	x0, [x19, #360]
DEFINE_SYSREG_RW_FUNCS(spsr_el2)
    29fc:	d53c4000 	mrs	x0, spsr_el2
	rec->pstate = read_spsr_el2();
    2a00:	f900ba60 	str	x0, [x19, #368]
	gic_save_state(&rec->sysregs.gicstate);
    2a04:	910a8260 	add	x0, x19, #0x2a0
    2a08:	94004767 	bl	147a4 <gic_save_state>
	if (rec->realm_info.pmu_enabled) {
    2a0c:	394fe260 	ldrb	w0, [x19, #1016]
    2a10:	35000080 	cbnz	w0, 2a20 <save_realm_state+0x48>
}
    2a14:	f9400bfe 	ldr	x30, [sp, #16]
    2a18:	a8c253f3 	ldp	x19, x20, [sp], #32
    2a1c:	d65f0bff 	retaa
		pmu_update_rec_exit(rec_exit);
    2a20:	aa1403e0 	mov	x0, x20
    2a24:	9400a192 	bl	2b06c <pmu_update_rec_exit>
		pmu_save_state(rec->aux_data.pmu,
    2a28:	b943fe61 	ldr	w1, [x19, #1020]
    2a2c:	f9426260 	ldr	x0, [x19, #1216]
    2a30:	94009ffa 	bl	2aa18 <pmu_save_state>
}
    2a34:	17fffff8 	b	2a14 <save_realm_state+0x3c>

0000000000002a38 <inject_serror>:

void inject_serror(struct rec *rec, unsigned long vsesr)
{
    2a38:	d503245f 	bti	c
	rec->serror_info.vsesr_el2 = vsesr;
    2a3c:	f9027001 	str	x1, [x0, #1248]
	rec->serror_info.inject = true;
    2a40:	52800021 	mov	w1, #0x1                   	// #1
    2a44:	3913a001 	strb	w1, [x0, #1256]
}
    2a48:	d65f03c0 	ret

0000000000002a4c <init_all_cpus_ns_simd_context>:

/* Initialize the NS world SIMD context for all CPUs. */
void init_all_cpus_ns_simd_context(void)
{
    2a4c:	d503233f 	paciasp
    2a50:	a9be7bf3 	stp	x19, x30, [sp, #-32]!
	int __unused retval;
	struct simd_config simd_cfg = { 0 };
    2a54:	f9000bff 	str	xzr, [sp, #16]
    2a58:	b9001bff 	str	wzr, [sp, #24]

	(void)simd_get_cpu_config(&simd_cfg);
    2a5c:	910043e0 	add	x0, sp, #0x10
    2a60:	9400a3a4 	bl	2b8f0 <simd_get_cpu_config>

	for (uint32_t i = 0; i < MAX_CPUS; i++) {
    2a64:	52800013 	mov	w19, #0x0                   	// #0
    2a68:	71007e7f 	cmp	w19, #0x1f
    2a6c:	54000288 	b.hi	2abc <init_all_cpus_ns_simd_context+0x70>  // b.pmore
		retval = simd_context_init(SIMD_OWNER_NWD, &g_ns_simd_ctx[i],
    2a70:	2a1303e1 	mov	w1, w19
    2a74:	910043e2 	add	x2, sp, #0x10
    2a78:	d2844e03 	mov	x3, #0x2270                	// #8816
    2a7c:	b0001020 	adrp	x0, 207000 <g_ns_data+0x3c40>
    2a80:	912f0000 	add	x0, x0, #0xbc0
    2a84:	9b030021 	madd	x1, x1, x3, x0
    2a88:	52800020 	mov	w0, #0x1                   	// #1
    2a8c:	9400a332 	bl	2b754 <simd_context_init>
					   &simd_cfg);
		assert(retval == 0);
    2a90:	35000060 	cbnz	w0, 2a9c <init_all_cpus_ns_simd_context+0x50>
	for (uint32_t i = 0; i < MAX_CPUS; i++) {
    2a94:	11000673 	add	w19, w19, #0x1
    2a98:	17fffff4 	b	2a68 <init_all_cpus_ns_simd_context+0x1c>
		assert(retval == 0);
    2a9c:	d0000143 	adrp	x3, 2c000 <rmm_text_end>
    2aa0:	911f8063 	add	x3, x3, #0x7e0
    2aa4:	d0000142 	adrp	x2, 2c000 <rmm_text_end>
    2aa8:	91228042 	add	x2, x2, #0x8a0
    2aac:	52801ee1 	mov	w1, #0xf7                  	// #247
    2ab0:	d0000140 	adrp	x0, 2c000 <rmm_text_end>
    2ab4:	911fc000 	add	x0, x0, #0x7f0
    2ab8:	9400281d 	bl	cb2c <__assert_func>
	}
}
    2abc:	a8c27bf3 	ldp	x19, x30, [sp], #32
    2ac0:	d65f0bff 	retaa

0000000000002ac4 <get_cpu_ns_simd_context>:

struct simd_context *get_cpu_ns_simd_context(void)
{
    2ac4:	d503245f 	bti	c
DEFINE_SYSREG_RW_FUNCS(tpidr_el2)
    2ac8:	d53cd040 	mrs	x0, tpidr_el2
	return &g_ns_simd_ctx[my_cpuid()];
    2acc:	2a0003e0 	mov	w0, w0
}
    2ad0:	d2844e02 	mov	x2, #0x2270                	// #8816
    2ad4:	b0001021 	adrp	x1, 207000 <g_ns_data+0x3c40>
    2ad8:	912f0021 	add	x1, x1, #0xbc0
    2adc:	9b020400 	madd	x0, x0, x2, x1
    2ae0:	d65f03c0 	ret

0000000000002ae4 <rec_run_loop>:

void rec_run_loop(struct rec *rec, struct rmi_rec_exit *rec_exit)
{
    2ae4:	d503233f 	paciasp
    2ae8:	a9bb53f3 	stp	x19, x20, [sp, #-80]!
    2aec:	a9015bf5 	stp	x21, x22, [sp, #16]
    2af0:	a90263f7 	stp	x23, x24, [sp, #32]
    2af4:	a9036bf9 	stp	x25, x26, [sp, #48]
    2af8:	f90023fe 	str	x30, [sp, #64]
    2afc:	d53cd055 	mrs	x21, tpidr_el2
	int realm_exception_code;
	void *rec_aux;
	unsigned int cpuid = my_cpuid();
	int ret __unused;

	assert(cpuid < MAX_CPUS);
    2b00:	71007ebf 	cmp	w21, #0x1f
    2b04:	540005a8 	b.hi	2bb8 <rec_run_loop+0xd4>  // b.pmore
    2b08:	aa0003f3 	mov	x19, x0
    2b0c:	aa0103f6 	mov	x22, x1
	assert(rec->ns == NULL);
    2b10:	f9421400 	ldr	x0, [x0, #1064]
    2b14:	b5000620 	cbnz	x0, 2bd8 <rec_run_loop+0xf4>

	ns_state = &g_ns_data[cpuid];
    2b18:	d37d7ea0 	ubfiz	x0, x21, #3, #32
    2b1c:	8b354002 	add	x2, x0, w21, uxtw
    2b20:	b0001001 	adrp	x1, 203000 <rmm_rela_start+0xaa8>
    2b24:	910f0021 	add	x1, x1, #0x3c0
    2b28:	8b021822 	add	x2, x1, x2, lsl #6

	/* Ensure PMU context is cleared */
	assert(ns_state->pmu == NULL);
    2b2c:	f9411440 	ldr	x0, [x2, #552]
    2b30:	b5000640 	cbnz	x0, 2bf8 <rec_run_loop+0x114>

	rec->ns = ns_state;
    2b34:	f9021662 	str	x2, [x19, #1064]

	/* Map auxiliary granules */
	rec_aux = aux_granules_map(rec->g_aux, rec->num_rec_aux);
    2b38:	b9443661 	ldr	w1, [x19, #1076]
    2b3c:	9110e260 	add	x0, x19, #0x438
    2b40:	9400309d 	bl	edb4 <aux_granules_map>
    2b44:	aa0003f8 	mov	x24, x0

	/*
	 * Associate the attest heap with the current CPU. This heap will be
	 * used for attestation RSI calls when the REC is running.
	 */
	ret = attestation_heap_ctx_assign_pe(&rec->aux_data.attest_data->alloc_ctx);
    2b48:	f9426a60 	ldr	x0, [x19, #1232]
    2b4c:	911c6000 	add	x0, x0, #0x718
    2b50:	940039ea 	bl	112f8 <attestation_heap_ctx_assign_pe>
	assert(ret == 0);
    2b54:	35000620 	cbnz	w0, 2c18 <rec_run_loop+0x134>

	ns_state->pmu = &g_pmu_data[cpuid];
    2b58:	d37e7ea1 	ubfiz	x1, x21, #2, #32
    2b5c:	8b354021 	add	x1, x1, w21, uxtw
    2b60:	d0001240 	adrp	x0, 24c000 <g_ns_simd_ctx+0x44440>
    2b64:	91270000 	add	x0, x0, #0x9c0
    2b68:	8b011c01 	add	x1, x0, x1, lsl #7
    2b6c:	d37d7ea0 	ubfiz	x0, x21, #3, #32
    2b70:	8b354000 	add	x0, x0, w21, uxtw
    2b74:	b0001002 	adrp	x2, 203000 <rmm_rela_start+0xaa8>
    2b78:	910f0042 	add	x2, x2, #0x3c0
    2b7c:	8b001840 	add	x0, x2, x0, lsl #6
    2b80:	f9011401 	str	x1, [x0, #552]

	save_ns_state(rec);
    2b84:	aa1303e0 	mov	x0, x19
    2b88:	97ffff50 	bl	28c8 <save_ns_state>
	restore_realm_state(rec);
    2b8c:	aa1303e0 	mov	x0, x19
    2b90:	97ffff62 	bl	2918 <restore_realm_state>

	/*
	 * The run loop must be entered with active SIMD context set to current
	 * CPU's NS SIMD context
	 */
	assert(rec->active_simd_ctx == NULL);
    2b94:	f9427e60 	ldr	x0, [x19, #1272]
    2b98:	b5000500 	cbnz	x0, 2c38 <rec_run_loop+0x154>
	rec->active_simd_ctx = &g_ns_simd_ctx[cpuid];
    2b9c:	2a1503f7 	mov	w23, w21
    2ba0:	d2844e01 	mov	x1, #0x2270                	// #8816
    2ba4:	b0001020 	adrp	x0, 207000 <g_ns_data+0x3c40>
    2ba8:	912f0000 	add	x0, x0, #0xbc0
    2bac:	9b0102f7 	madd	x23, x23, x1, x0
    2bb0:	f9027e77 	str	x23, [x19, #1272]
    2bb4:	1400004f 	b	2cf0 <rec_run_loop+0x20c>
	assert(cpuid < MAX_CPUS);
    2bb8:	d0000143 	adrp	x3, 2c000 <rmm_text_end>
    2bbc:	91208063 	add	x3, x3, #0x820
    2bc0:	d0000142 	adrp	x2, 2c000 <rmm_text_end>
    2bc4:	91224042 	add	x2, x2, #0x890
    2bc8:	52802101 	mov	w1, #0x108                 	// #264
    2bcc:	d0000140 	adrp	x0, 2c000 <rmm_text_end>
    2bd0:	911fc000 	add	x0, x0, #0x7f0
    2bd4:	940027d6 	bl	cb2c <__assert_func>
	assert(rec->ns == NULL);
    2bd8:	d0000143 	adrp	x3, 2c000 <rmm_text_end>
    2bdc:	9120e063 	add	x3, x3, #0x838
    2be0:	d0000142 	adrp	x2, 2c000 <rmm_text_end>
    2be4:	91224042 	add	x2, x2, #0x890
    2be8:	52802121 	mov	w1, #0x109                 	// #265
    2bec:	d0000140 	adrp	x0, 2c000 <rmm_text_end>
    2bf0:	911fc000 	add	x0, x0, #0x7f0
    2bf4:	940027ce 	bl	cb2c <__assert_func>
	assert(ns_state->pmu == NULL);
    2bf8:	d0000143 	adrp	x3, 2c000 <rmm_text_end>
    2bfc:	91212063 	add	x3, x3, #0x848
    2c00:	d0000142 	adrp	x2, 2c000 <rmm_text_end>
    2c04:	91224042 	add	x2, x2, #0x890
    2c08:	528021c1 	mov	w1, #0x10e                 	// #270
    2c0c:	d0000140 	adrp	x0, 2c000 <rmm_text_end>
    2c10:	911fc000 	add	x0, x0, #0x7f0
    2c14:	940027c6 	bl	cb2c <__assert_func>
	assert(ret == 0);
    2c18:	d0000143 	adrp	x3, 2c000 <rmm_text_end>
    2c1c:	91218063 	add	x3, x3, #0x860
    2c20:	d0000142 	adrp	x2, 2c000 <rmm_text_end>
    2c24:	91224042 	add	x2, x2, #0x890
    2c28:	52802341 	mov	w1, #0x11a                 	// #282
    2c2c:	d0000140 	adrp	x0, 2c000 <rmm_text_end>
    2c30:	911fc000 	add	x0, x0, #0x7f0
    2c34:	940027be 	bl	cb2c <__assert_func>
	assert(rec->active_simd_ctx == NULL);
    2c38:	d0000143 	adrp	x3, 2c000 <rmm_text_end>
    2c3c:	9121c063 	add	x3, x3, #0x870
    2c40:	d0000142 	adrp	x2, 2c000 <rmm_text_end>
    2c44:	91224042 	add	x2, x2, #0x890
    2c48:	528024a1 	mov	w1, #0x125                 	// #293
    2c4c:	d0000140 	adrp	x0, 2c000 <rmm_text_end>
    2c50:	911fc000 	add	x0, x0, #0x7f0
    2c54:	940027b6 	bl	cb2c <__assert_func>
		 * iteration of the loop to ensure we update the timer
		 * mask on each entry to the realm and that we report any
		 * change in output level to the NS caller.
		 */
		if (check_pending_timers(rec)) {
			rec_exit->exit_reason = RMI_EXIT_IRQ;
    2c58:	d2800020 	mov	x0, #0x1                   	// #1
    2c5c:	f90002c0 	str	x0, [x22]

	/*
	 * Check if FPU/SIMD was used, and if it was, save the realm state,
	 * restore the NS state.
	 */
	if (rec->active_simd_ctx == rec->aux_data.simd_ctx) {
    2c60:	f9427e60 	ldr	x0, [x19, #1272]
    2c64:	f9426661 	ldr	x1, [x19, #1224]
    2c68:	eb01001f 	cmp	x0, x1
    2c6c:	54000780 	b.eq	2d5c <rec_run_loop+0x278>  // b.none
		 */
		SIMD_DISABLE_ALL_CPTR_FLAGS(rec->sysregs.cptr_el2);
	}

	/* Clear active simd_context */
	rec->active_simd_ctx = NULL;
    2c70:	f9027e7f 	str	xzr, [x19, #1272]

	report_timer_state_to_ns(rec_exit);
    2c74:	aa1603e0 	mov	x0, x22
    2c78:	94003668 	bl	10618 <report_timer_state_to_ns>

	save_realm_state(rec, rec_exit);
    2c7c:	aa1603e1 	mov	x1, x22
    2c80:	aa1303e0 	mov	x0, x19
    2c84:	97ffff55 	bl	29d8 <save_realm_state>
	restore_ns_state(rec);
    2c88:	aa1303e0 	mov	x0, x19
    2c8c:	97ffff3f 	bl	2988 <restore_ns_state>

	/*
	 * Clear PMU context while exiting
	 */
	ns_state->pmu = NULL;
    2c90:	d37d7ea0 	ubfiz	x0, x21, #3, #32
    2c94:	8b354015 	add	x21, x0, w21, uxtw
    2c98:	b0001000 	adrp	x0, 203000 <rmm_rela_start+0xaa8>
    2c9c:	910f0000 	add	x0, x0, #0x3c0
    2ca0:	8b151815 	add	x21, x0, x21, lsl #6
    2ca4:	f90116bf 	str	xzr, [x21, #552]

	/*
	 * Clear NS pointer since that struct is local to this function.
	 */
	rec->ns = NULL;
    2ca8:	f902167f 	str	xzr, [x19, #1064]

	/* Undo the heap association */
	ret = attestation_heap_ctx_unassign_pe();
    2cac:	940039a6 	bl	11344 <attestation_heap_ctx_unassign_pe>
	assert(ret == 0);
    2cb0:	35000640 	cbnz	w0, 2d78 <rec_run_loop+0x294>

	/* Unmap auxiliary granules */
	aux_granules_unmap(rec_aux, rec->num_rec_aux);
    2cb4:	b9443661 	ldr	w1, [x19, #1076]
    2cb8:	aa1803e0 	mov	x0, x24
    2cbc:	94003071 	bl	ee80 <aux_granules_unmap>
}
    2cc0:	a9415bf5 	ldp	x21, x22, [sp, #16]
    2cc4:	a94263f7 	ldp	x23, x24, [sp, #32]
    2cc8:	a9436bf9 	ldp	x25, x26, [sp, #48]
    2ccc:	f94023fe 	ldr	x30, [sp, #64]
    2cd0:	a8c553f3 	ldp	x19, x20, [sp], #80
    2cd4:	d65f0bff 	retaa
	} while (handle_realm_exit(rec, rec_exit, realm_exception_code));
    2cd8:	2a1403e2 	mov	w2, w20
    2cdc:	aa1603e1 	mov	x1, x22
    2ce0:	aa1303e0 	mov	x0, x19
    2ce4:	97fffb7e 	bl	1adc <handle_realm_exit>
    2ce8:	12001c00 	and	w0, w0, #0xff
    2cec:	34fffba0 	cbz	w0, 2c60 <rec_run_loop+0x17c>
DEFINE_SYSREG_RW_FUNCS(cptr_el2)
    2cf0:	d53c1159 	mrs	x25, cptr_el2
		if (check_pending_timers(rec)) {
    2cf4:	aa1303e0 	mov	x0, x19
    2cf8:	9400360c 	bl	10528 <check_pending_timers>
    2cfc:	12001c00 	and	w0, w0, #0xff
    2d00:	35fffac0 	cbnz	w0, 2c58 <rec_run_loop+0x174>
		activate_events(rec);
    2d04:	aa1303e0 	mov	x0, x19
    2d08:	97fffee7 	bl	28a4 <activate_events>
		if (rmm_cptr_el2 != rec->sysregs.cptr_el2) {
    2d0c:	f941c660 	ldr	x0, [x19, #904]
    2d10:	eb19001f 	cmp	x0, x25
    2d14:	54000060 	b.eq	2d20 <rec_run_loop+0x23c>  // b.none
    2d18:	d51c1140 	msr	cptr_el2, x0
DEFINE_SYSOP_FUNC(isb)
    2d1c:	d5033fdf 	isb
		pauth_restore_realm_keys(&rec->pauth);
    2d20:	9104627a 	add	x26, x19, #0x118
    2d24:	aa1a03e0 	mov	x0, x26
    2d28:	9400a113 	bl	2b174 <pauth_restore_realm_keys>
		realm_exception_code = run_realm(&rec->regs[0]);
    2d2c:	91006260 	add	x0, x19, #0x18
    2d30:	97fff544 	bl	240 <run_realm>
    2d34:	2a0003f4 	mov	w20, w0
		pauth_save_realm_keys(&rec->pauth);
    2d38:	aa1a03e0 	mov	x0, x26
    2d3c:	9400a124 	bl	2b1cc <pauth_save_realm_keys>
		pauth_restore_rmm_keys();
    2d40:	9400a0e4 	bl	2b0d0 <pauth_restore_rmm_keys>
		if (rmm_cptr_el2 != rec->sysregs.cptr_el2) {
    2d44:	f941c660 	ldr	x0, [x19, #904]
    2d48:	eb19001f 	cmp	x0, x25
    2d4c:	54fffc60 	b.eq	2cd8 <rec_run_loop+0x1f4>  // b.none
DEFINE_SYSREG_RW_FUNCS(cptr_el2)
    2d50:	d51c1159 	msr	cptr_el2, x25
DEFINE_SYSOP_FUNC(isb)
    2d54:	d5033fdf 	isb
    2d58:	17ffffe0 	b	2cd8 <rec_run_loop+0x1f4>
		(void)simd_context_switch(rec->active_simd_ctx,
    2d5c:	aa1703e1 	mov	x1, x23
    2d60:	9400a1f4 	bl	2b530 <simd_context_switch>
		SIMD_DISABLE_ALL_CPTR_FLAGS(rec->sysregs.cptr_el2);
    2d64:	f941c660 	ldr	x0, [x19, #904]
    2d68:	92a06661 	mov	x1, #0xfffffffffcccffff    	// #-53673985
    2d6c:	8a010000 	and	x0, x0, x1
    2d70:	f901c660 	str	x0, [x19, #904]
    2d74:	17ffffbf 	b	2c70 <rec_run_loop+0x18c>
	assert(ret == 0);
    2d78:	d0000143 	adrp	x3, 2c000 <rmm_text_end>
    2d7c:	91218063 	add	x3, x3, #0x860
    2d80:	d0000142 	adrp	x2, 2c000 <rmm_text_end>
    2d84:	91224042 	add	x2, x2, #0x890
    2d88:	52802ee1 	mov	w1, #0x177                 	// #375
    2d8c:	d0000140 	adrp	x0, 2c000 <rmm_text_end>
    2d90:	911fc000 	add	x0, x0, #0x7f0
    2d94:	94002766 	bl	cb2c <__assert_func>

0000000000002d98 <handle_dc_sw_sysreg_trap>:
 *	false : DC trap not handled as encoding range did not match set/way
 */
static bool handle_dc_sw_sysreg_trap(struct rec *rec,
				     struct rmi_rec_exit *rec_exit,
				     unsigned long esr)
{
    2d98:	d503245f 	bti	c
	unsigned long dc_encoding = esr & ESR_EL2_SYSREG_MASK;
    2d9c:	927f5043 	and	x3, x2, #0x3ffffe
    2da0:	9276e863 	and	x3, x3, #0xfffffffffffffc1f
	 *
	 * FEAT_MTE2 related data cache maintainence operations by set/way
	 * targetting MTE tags or cache are also ignored. Sysreg encodings
	 * DC_IGSW, DC_IGDSW, DC_CGSW, DC_CGDSW, DC_CIGSW and DC_CIGDSW.
	 */
	if ((dc_encoding == ESR_EL2_SYSREG_DC_ISW) ||
    2da4:	d2838180 	mov	x0, #0x1c0c                	// #7180
    2da8:	f2a00280 	movk	x0, #0x14, lsl #16
    2dac:	eb00007f 	cmp	x3, x0
    2db0:	1a9f17e0 	cset	w0, eq  // eq = none
	    (dc_encoding == ESR_EL2_SYSREG_DC_CSW) ||
    2db4:	d2838284 	mov	x4, #0x1c14                	// #7188
    2db8:	f2a00284 	movk	x4, #0x14, lsl #16
    2dbc:	eb04007f 	cmp	x3, x4
    2dc0:	1a9f17e4 	cset	w4, eq  // eq = none
	if ((dc_encoding == ESR_EL2_SYSREG_DC_ISW) ||
    2dc4:	2a040000 	orr	w0, w0, w4
    2dc8:	350001c0 	cbnz	w0, 2e00 <handle_dc_sw_sysreg_trap+0x68>
    2dcc:	d2838384 	mov	x4, #0x1c1c                	// #7196
    2dd0:	f2a00304 	movk	x4, #0x18, lsl #16
    2dd4:	eb04007f 	cmp	x3, x4
    2dd8:	54000288 	b.hi	2e28 <handle_dc_sw_sysreg_trap+0x90>  // b.pmore
    2ddc:	d1004084 	sub	x4, x4, #0x10
    2de0:	eb04007f 	cmp	x3, x4
    2de4:	54000102 	b.cs	2e04 <handle_dc_sw_sysreg_trap+0x6c>  // b.hs, b.nlast
    2de8:	d2838384 	mov	x4, #0x1c1c                	// #7196
    2dec:	f2a00284 	movk	x4, #0x14, lsl #16
    2df0:	eb04007f 	cmp	x3, x4
    2df4:	540003a0 	b.eq	2e68 <handle_dc_sw_sysreg_trap+0xd0>  // b.none
	/*
	 * We could trap Branch record buffer instructions or any other IMPDEF
	 * instructions in this encoding space. For now return to Host with
	 * SYNC exception syndrome.
	 */
	rec_exit->exit_reason = RMI_EXIT_SYNC;
    2df8:	f900003f 	str	xzr, [x1]
	rec_exit->esr = esr;
    2dfc:	f9008022 	str	x2, [x1, #256]

	return false;
}
    2e00:	d65f03c0 	ret
    2e04:	d1460463 	sub	x3, x3, #0x181, lsl #12
    2e08:	d1303063 	sub	x3, x3, #0xc0c
    2e0c:	d2802024 	mov	x4, #0x101                 	// #257
    2e10:	f2a00024 	movk	x4, #0x1, lsl #16
    2e14:	9ac32483 	lsr	x3, x4, x3
    2e18:	12000064 	and	w4, w3, #0x1
    2e1c:	3607fee3 	tbz	w3, #0, 2df8 <handle_dc_sw_sysreg_trap+0x60>
	if ((dc_encoding == ESR_EL2_SYSREG_DC_ISW) ||
    2e20:	2a0403e0 	mov	w0, w4
    2e24:	17fffff7 	b	2e00 <handle_dc_sw_sysreg_trap+0x68>
    2e28:	d2838384 	mov	x4, #0x1c1c                	// #7196
    2e2c:	f2a00384 	movk	x4, #0x1c, lsl #16
    2e30:	eb04007f 	cmp	x3, x4
    2e34:	54fffe28 	b.hi	2df8 <handle_dc_sw_sysreg_trap+0x60>  // b.pmore
    2e38:	d1004084 	sub	x4, x4, #0x10
    2e3c:	eb04007f 	cmp	x3, x4
    2e40:	54fffdc3 	b.cc	2df8 <handle_dc_sw_sysreg_trap+0x60>  // b.lo, b.ul, b.last
    2e44:	d1470463 	sub	x3, x3, #0x1c1, lsl #12
    2e48:	d1303063 	sub	x3, x3, #0xc0c
    2e4c:	d2802024 	mov	x4, #0x101                 	// #257
    2e50:	f2a00024 	movk	x4, #0x1, lsl #16
    2e54:	9ac32483 	lsr	x3, x4, x3
    2e58:	12000064 	and	w4, w3, #0x1
    2e5c:	3607fce3 	tbz	w3, #0, 2df8 <handle_dc_sw_sysreg_trap+0x60>
    2e60:	2a0403e0 	mov	w0, w4
    2e64:	17ffffe7 	b	2e00 <handle_dc_sw_sysreg_trap+0x68>
    2e68:	52800020 	mov	w0, #0x1                   	// #1
    2e6c:	17ffffe5 	b	2e00 <handle_dc_sw_sysreg_trap+0x68>

0000000000002e70 <get_sysreg_write_value>:
};

static unsigned long get_sysreg_write_value(struct rec *rec, unsigned long esr)
{
	/* Rt bits [9:5] of ISS field cannot exceed 0b11111 */
	unsigned int rt = (unsigned int)ESR_EL2_SYSREG_ISS_RT(esr);
    2e70:	53052421 	ubfx	w1, w1, #5, #5

	/* Handle reads from XZR register */
	if (rt == 31U) {
    2e74:	71007c3f 	cmp	w1, #0x1f
    2e78:	540000c0 	b.eq	2e90 <get_sysreg_write_value+0x20>  // b.none
		return 0UL;
	}

	return rec->regs[rt];
    2e7c:	2a0103e1 	mov	w1, w1
    2e80:	91000821 	add	x1, x1, #0x2
    2e84:	8b010c00 	add	x0, x0, x1, lsl #3
    2e88:	f9400400 	ldr	x0, [x0, #8]
}
    2e8c:	d65f03c0 	ret
		return 0UL;
    2e90:	d2800000 	mov	x0, #0x0                   	// #0
    2e94:	17fffffe 	b	2e8c <get_sysreg_write_value+0x1c>

0000000000002e98 <emulate_sysreg_access_ns>:

static void emulate_sysreg_access_ns(struct rec *rec,
				     struct rmi_rec_exit *rec_exit,
				     unsigned long esr)
{
	if (ESR_EL2_SYSREG_IS_WRITE(esr)) {
    2e98:	37000122 	tbnz	w2, #0, 2ebc <emulate_sysreg_access_ns+0x24>
{
    2e9c:	d503233f 	paciasp
    2ea0:	a9bf7bf3 	stp	x19, x30, [sp, #-16]!
    2ea4:	aa0103f3 	mov	x19, x1
    2ea8:	aa0203e1 	mov	x1, x2
		rec_exit->gprs[0] = get_sysreg_write_value(rec, esr);
    2eac:	97fffff1 	bl	2e70 <get_sysreg_write_value>
    2eb0:	f9010260 	str	x0, [x19, #512]
	}
}
    2eb4:	a8c17bf3 	ldp	x19, x30, [sp], #16
    2eb8:	d65f0bff 	retaa
    2ebc:	d65f03c0 	ret

0000000000002ec0 <handle_icc_el1_sysreg_trap>:
{
    2ec0:	d503233f 	paciasp
    2ec4:	f81f0ffe 	str	x30, [sp, #-16]!
	__unused unsigned long sysreg = esr & ESR_EL2_SYSREG_MASK;
    2ec8:	927f5040 	and	x0, x2, #0x3ffffe
    2ecc:	9276e800 	and	x0, x0, #0xfffffffffffffc1f
	assert((sysreg == ESR_EL2_SYSREG_ICC_DIR) ||
    2ed0:	d28602c3 	mov	x3, #0x3016                	// #12310
    2ed4:	f2a00643 	movk	x3, #0x32, lsl #16
    2ed8:	eb03001f 	cmp	x0, x3
    2edc:	1a9f07e4 	cset	w4, ne  // ne = any
    2ee0:	91420063 	add	x3, x3, #0x80, lsl #12
    2ee4:	eb03001f 	cmp	x0, x3
    2ee8:	1a9f07e3 	cset	w3, ne  // ne = any
    2eec:	6a03009f 	tst	w4, w3
    2ef0:	540000a0 	b.eq	2f04 <handle_icc_el1_sysreg_trap+0x44>  // b.none
    2ef4:	d28602c3 	mov	x3, #0x3016                	// #12310
    2ef8:	f2a007c3 	movk	x3, #0x3e, lsl #16
    2efc:	eb03001f 	cmp	x0, x3
    2f00:	540000e1 	b.ne	2f1c <handle_icc_el1_sysreg_trap+0x5c>  // b.any
	assert(ESR_EL2_SYSREG_IS_WRITE(esr));
    2f04:	370001c2 	tbnz	w2, #0, 2f3c <handle_icc_el1_sysreg_trap+0x7c>
	rec_exit->exit_reason = RMI_EXIT_SYNC;
    2f08:	f900003f 	str	xzr, [x1]
	rec_exit->esr = esr;
    2f0c:	f9008022 	str	x2, [x1, #256]
}
    2f10:	52800000 	mov	w0, #0x0                   	// #0
    2f14:	f84107fe 	ldr	x30, [sp], #16
    2f18:	d65f0bff 	retaa
	assert((sysreg == ESR_EL2_SYSREG_ICC_DIR) ||
    2f1c:	d0000143 	adrp	x3, 2c000 <rmm_text_end>
    2f20:	91230063 	add	x3, x3, #0x8c0
    2f24:	d0000142 	adrp	x2, 2c000 <rmm_text_end>
    2f28:	91284042 	add	x2, x2, #0xa10
    2f2c:	52801c21 	mov	w1, #0xe1                  	// #225
    2f30:	d0000140 	adrp	x0, 2c000 <rmm_text_end>
    2f34:	91250000 	add	x0, x0, #0x940
    2f38:	940026fd 	bl	cb2c <__assert_func>
	assert(ESR_EL2_SYSREG_IS_WRITE(esr));
    2f3c:	d0000143 	adrp	x3, 2c000 <rmm_text_end>
    2f40:	9125c063 	add	x3, x3, #0x970
    2f44:	d0000142 	adrp	x2, 2c000 <rmm_text_end>
    2f48:	91284042 	add	x2, x2, #0xa10
    2f4c:	52801d41 	mov	w1, #0xea                  	// #234
    2f50:	d0000140 	adrp	x0, 2c000 <rmm_text_end>
    2f54:	91250000 	add	x0, x0, #0x940
    2f58:	940026f5 	bl	cb2c <__assert_func>

0000000000002f5c <handle_id_sysreg_trap>:
{
    2f5c:	d503245f 	bti	c
	assert(!ESR_EL2_SYSREG_IS_WRITE(esr));
    2f60:	36000342 	tbz	w2, #0, 2fc8 <handle_id_sysreg_trap+0x6c>
	rt = (unsigned int)ESR_EL2_SYSREG_ISS_RT(esr);
    2f64:	53052441 	ubfx	w1, w2, #5, #5
	if (rt == 31U) {
    2f68:	71007c3f 	cmp	w1, #0x1f
    2f6c:	54000ba0 	b.eq	30e0 <handle_id_sysreg_trap+0x184>  // b.none
	idreg = esr & ESR_EL2_SYSREG_MASK;
    2f70:	927f5042 	and	x2, x2, #0x3ffffe
    2f74:	9276e842 	and	x2, x2, #0xfffffffffffffc1f
	switch (idreg) {
    2f78:	d2800183 	mov	x3, #0xc                   	// #12
    2f7c:	f2a00643 	movk	x3, #0x32, lsl #16
    2f80:	eb03005f 	cmp	x2, x3
    2f84:	54000c40 	b.eq	310c <handle_id_sysreg_trap+0x1b0>  // b.none
    2f88:	eb03005f 	cmp	x2, x3
    2f8c:	540006a8 	b.hi	3060 <handle_id_sysreg_trap+0x104>  // b.pmore
    2f90:	d28001c3 	mov	x3, #0xe                   	// #14
    2f94:	f2a00603 	movk	x3, #0x30, lsl #16
    2f98:	eb03005f 	cmp	x2, x3
    2f9c:	54000bc0 	b.eq	3114 <handle_id_sysreg_trap+0x1b8>  // b.none
    2fa0:	eb03005f 	cmp	x2, x3
    2fa4:	54000428 	b.hi	3028 <handle_id_sysreg_trap+0xcc>  // b.pmore
    2fa8:	d1001063 	sub	x3, x3, #0x4
    2fac:	eb03005f 	cmp	x2, x3
    2fb0:	540009c0 	b.eq	30e8 <handle_id_sysreg_trap+0x18c>  // b.none
    2fb4:	91000863 	add	x3, x3, #0x2
    2fb8:	eb03005f 	cmp	x2, x3
    2fbc:	540001a1 	b.ne	2ff0 <handle_id_sysreg_trap+0x94>  // b.any
DEFINE_RENAME_SYSREG_READ_FUNC(ID_AA64ISAR0_EL1, id_aa64isar0_el1)
    2fc0:	d5380602 	mrs	x2, id_aa64isar0_el1
		break;
    2fc4:	14000043 	b	30d0 <handle_id_sysreg_trap+0x174>
{
    2fc8:	d503233f 	paciasp
    2fcc:	f81f0ffe 	str	x30, [sp, #-16]!
	assert(!ESR_EL2_SYSREG_IS_WRITE(esr));
    2fd0:	d0000143 	adrp	x3, 2c000 <rmm_text_end>
    2fd4:	91264063 	add	x3, x3, #0x990
    2fd8:	d0000142 	adrp	x2, 2c000 <rmm_text_end>
    2fdc:	9127e042 	add	x2, x2, #0x9f8
    2fe0:	52800fc1 	mov	w1, #0x7e                  	// #126
    2fe4:	d0000140 	adrp	x0, 2c000 <rmm_text_end>
    2fe8:	91250000 	add	x0, x0, #0x940
    2fec:	940026d0 	bl	cb2c <__assert_func>
	switch (idreg) {
    2ff0:	d1001063 	sub	x3, x3, #0x4
    2ff4:	eb03005f 	cmp	x2, x3
    2ff8:	54000141 	b.ne	3020 <handle_id_sysreg_trap+0xc4>  // b.any
DEFINE_RENAME_SYSREG_READ_FUNC(ID_AA64PFR0_EL1, id_aa64pfr0_el1)
    2ffc:	d5380403 	mrs	x3, id_aa64pfr0_el1
		value = SYSREG_READ_CLEAR(PFR0);
    3000:	9250ec62 	and	x2, x3, #0xffff0fffffffffff
		if ((EXTRACT(ID_AA64PFR0_EL1_SVE, value) != 0UL) &&
    3004:	f2600c7f 	tst	x3, #0xf00000000
    3008:	54000640 	b.eq	30d0 <handle_id_sysreg_trap+0x174>  // b.none
		    (rec->realm_info.simd_cfg.sve_en == (bool)false)) {
    300c:	39501004 	ldrb	w4, [x0, #1028]
		if ((EXTRACT(ID_AA64PFR0_EL1_SVE, value) != 0UL) &&
    3010:	35000604 	cbnz	w4, 30d0 <handle_id_sysreg_trap+0x174>
			value &= ~MASK(ID_AA64PFR0_EL1_SVE);
    3014:	92de01e2 	mov	x2, #0xffff0ff0ffffffff    	// #-263947215175681
    3018:	8a020062 	and	x2, x3, x2
    301c:	1400002d 	b	30d0 <handle_id_sysreg_trap+0x174>
	switch (idreg) {
    3020:	d2800002 	mov	x2, #0x0                   	// #0
    3024:	1400002b 	b	30d0 <handle_id_sysreg_trap+0x174>
    3028:	d2800103 	mov	x3, #0x8                   	// #8
    302c:	f2a00643 	movk	x3, #0x32, lsl #16
    3030:	eb03005f 	cmp	x2, x3
    3034:	54000780 	b.eq	3124 <handle_id_sysreg_trap+0x1c8>  // b.none
    3038:	91000863 	add	x3, x3, #0x2
    303c:	eb03005f 	cmp	x2, x3
    3040:	540000c1 	b.ne	3058 <handle_id_sysreg_trap+0xfc>  // b.any
DEFINE_RENAME_SYSREG_READ_FUNC(ID_AA64DFR1_EL1, id_aa64dfr1_el1)
    3044:	d5380522 	mrs	x2, id_aa64dfr1_el1
		value = SYSREG_READ_CLEAR(DFR1);
    3048:	92c01e03 	mov	x3, #0xffffff0fffffffff    	// #-1030792151041
    304c:	f2fffe03 	movk	x3, #0xfff0, lsl #48
    3050:	8a030042 	and	x2, x2, x3
		break;
    3054:	1400001f 	b	30d0 <handle_id_sysreg_trap+0x174>
	switch (idreg) {
    3058:	d2800002 	mov	x2, #0x0                   	// #0
    305c:	1400001d 	b	30d0 <handle_id_sysreg_trap+0x174>
    3060:	d2800103 	mov	x3, #0x8                   	// #8
    3064:	f2a00703 	movk	x3, #0x38, lsl #16
    3068:	eb03005f 	cmp	x2, x3
    306c:	54000660 	b.eq	3138 <handle_id_sysreg_trap+0x1dc>  // b.none
    3070:	54000149 	b.ls	3098 <handle_id_sysreg_trap+0x13c>  // b.plast
    3074:	d2800143 	mov	x3, #0xa                   	// #10
    3078:	f2a00703 	movk	x3, #0x38, lsl #16
    307c:	eb03005f 	cmp	x2, x3
    3080:	54000260 	b.eq	30cc <handle_id_sysreg_trap+0x170>  // b.none
    3084:	91408063 	add	x3, x3, #0x20, lsl #12
    3088:	eb03005f 	cmp	x2, x3
    308c:	540001c1 	b.ne	30c4 <handle_id_sysreg_trap+0x168>  // b.any
DEFINE_RENAME_SYSREG_READ_FUNC(ID_AA64AFR1_EL1, id_aa64afr1_el1)
    3090:	d53805a2 	mrs	x2, id_aa64afr1_el1
		break;
    3094:	1400000f 	b	30d0 <handle_id_sysreg_trap+0x174>
	switch (idreg) {
    3098:	d28001c3 	mov	x3, #0xe                   	// #14
    309c:	f2a00643 	movk	x3, #0x32, lsl #16
    30a0:	eb03005f 	cmp	x2, x3
    30a4:	540003c0 	b.eq	311c <handle_id_sysreg_trap+0x1c0>  // b.none
    30a8:	91408063 	add	x3, x3, #0x20, lsl #12
    30ac:	eb03005f 	cmp	x2, x3
    30b0:	54000061 	b.ne	30bc <handle_id_sysreg_trap+0x160>  // b.any
DEFINE_RENAME_SYSREG_READ_FUNC(ID_AA64MMFR2_EL1, id_aa64mmfr2_el1)
    30b4:	d5380742 	mrs	x2, id_aa64mmfr2_el1
		break;
    30b8:	14000006 	b	30d0 <handle_id_sysreg_trap+0x174>
	switch (idreg) {
    30bc:	d2800002 	mov	x2, #0x0                   	// #0
    30c0:	14000004 	b	30d0 <handle_id_sysreg_trap+0x174>
    30c4:	d2800002 	mov	x2, #0x0                   	// #0
    30c8:	14000002 	b	30d0 <handle_id_sysreg_trap+0x174>
DEFINE_RENAME_SYSREG_READ_FUNC(ID_AA64AFR0_EL1, id_aa64afr0_el1)
    30cc:	d5380582 	mrs	x2, id_aa64afr0_el1
	rec->regs[rt] = value;
    30d0:	2a0103e1 	mov	w1, w1
    30d4:	91000821 	add	x1, x1, #0x2
    30d8:	8b010c00 	add	x0, x0, x1, lsl #3
    30dc:	f9000402 	str	x2, [x0, #8]
}
    30e0:	52800020 	mov	w0, #0x1                   	// #1
    30e4:	d65f03c0 	ret
DEFINE_RENAME_SYSREG_READ_FUNC(ID_AA64DFR0_EL1, id_aa64dfr0_el1)
    30e8:	d5380502 	mrs	x2, id_aa64dfr0_el1
		value = SYSREG_READ_CLEAR_SET(DFR0);
    30ec:	d281e003 	mov	x3, #0xf00                 	// #3840
    30f0:	f2c01e03 	movk	x3, #0xf0, lsl #32
    30f4:	f2fe01e3 	movk	x3, #0xf00f, lsl #48
    30f8:	8a030042 	and	x2, x2, x3
    30fc:	d28200c3 	mov	x3, #0x1006                	// #4102
    3100:	f2a00203 	movk	x3, #0x10, lsl #16
    3104:	aa030042 	orr	x2, x2, x3
		break;
    3108:	17fffff2 	b	30d0 <handle_id_sysreg_trap+0x174>
DEFINE_RENAME_SYSREG_READ_FUNC(ID_AA64ISAR1_EL1, id_aa64isar1_el1)
    310c:	d5380622 	mrs	x2, id_aa64isar1_el1
		break;
    3110:	17fffff0 	b	30d0 <handle_id_sysreg_trap+0x174>
DEFINE_RENAME_SYSREG_READ_FUNC(ID_AA64MMFR0_EL1, id_aa64mmfr0_el1)
    3114:	d5380702 	mrs	x2, id_aa64mmfr0_el1
		break;
    3118:	17ffffee 	b	30d0 <handle_id_sysreg_trap+0x174>
DEFINE_RENAME_SYSREG_READ_FUNC(ID_AA64MMFR1_EL1, id_aa64mmfr1_el1)
    311c:	d5380722 	mrs	x2, id_aa64mmfr1_el1
		break;
    3120:	17ffffec 	b	30d0 <handle_id_sysreg_trap+0x174>
DEFINE_RENAME_SYSREG_READ_FUNC(ID_AA64PFR1_EL1, id_aa64pfr1_el1)
    3124:	d5380422 	mrs	x2, id_aa64pfr1_el1
		value = SYSREG_READ_CLEAR(PFR1);
    3128:	9281e003 	mov	x3, #0xfffffffffffff0ff    	// #-3841
    312c:	f2be1fe3 	movk	x3, #0xf0ff, lsl #16
    3130:	8a030042 	and	x2, x2, x3
		break;
    3134:	17ffffe7 	b	30d0 <handle_id_sysreg_trap+0x174>
DEFINE_SYSREG_READ_FUNC(id_aa64pfr0_el1)
    3138:	d5380403 	mrs	x3, id_aa64pfr0_el1
 * 0b0000 SVE architectural state and programmers' model are not implemented.
 * 0b0001 SVE architectural state and programmers' model are implemented.
 */
static inline bool is_feat_sve_present(void)
{
	return (EXTRACT(ID_AA64PFR0_EL1_SVE,
    313c:	d3608c62 	ubfx	x2, x3, #32, #4
		if (is_feat_sve_present() && rec->realm_info.simd_cfg.sve_en) {
    3140:	f2600c7f 	tst	x3, #0xf00000000
    3144:	54fffc60 	b.eq	30d0 <handle_id_sysreg_trap+0x174>  // b.none
    3148:	39501002 	ldrb	w2, [x0, #1028]
    314c:	34000062 	cbz	w2, 3158 <handle_id_sysreg_trap+0x1fc>
DEFINE_RENAME_SYSREG_READ_FUNC(id_aa64zfr0_el1, ID_AA64ZFR0_EL1)
    3150:	d5380482 	mrs	x2, id_aa64zfr0_el1
			value = read_id_aa64zfr0_el1();
    3154:	17ffffdf 	b	30d0 <handle_id_sysreg_trap+0x174>
			value = 0UL;
    3158:	d2800002 	mov	x2, #0x0                   	// #0
    315c:	17ffffdd 	b	30d0 <handle_id_sysreg_trap+0x174>

0000000000003160 <rmm_log>:
{
    3160:	d503233f 	paciasp
    3164:	f8170ffe 	str	x30, [sp, #-144]!
    3168:	f9002fe1 	str	x1, [sp, #88]
    316c:	f90033e2 	str	x2, [sp, #96]
    3170:	f90037e3 	str	x3, [sp, #104]
    3174:	f9003be4 	str	x4, [sp, #112]
    3178:	f9003fe5 	str	x5, [sp, #120]
    317c:	f90043e6 	str	x6, [sp, #128]
    3180:	f90047e7 	str	x7, [sp, #136]
	va_start(args, fmt);
    3184:	910243e1 	add	x1, sp, #0x90
    3188:	f9001be1 	str	x1, [sp, #48]
    318c:	f9001fe1 	str	x1, [sp, #56]
    3190:	910143e1 	add	x1, sp, #0x50
    3194:	f90023e1 	str	x1, [sp, #64]
    3198:	128006e1 	mov	w1, #0xffffffc8            	// #-56
    319c:	b9004be1 	str	w1, [sp, #72]
    31a0:	b9004fff 	str	wzr, [sp, #76]
	(void)vprintf(fmt, args);
    31a4:	a9430fe2 	ldp	x2, x3, [sp, #48]
    31a8:	a9010fe2 	stp	x2, x3, [sp, #16]
    31ac:	a9440fe2 	ldp	x2, x3, [sp, #64]
    31b0:	a9020fe2 	stp	x2, x3, [sp, #32]
    31b4:	910043e1 	add	x1, sp, #0x10
    31b8:	94002aab 	bl	dc64 <vprintf_>
}
    31bc:	f84907fe 	ldr	x30, [sp], #144
    31c0:	d65f0bff 	retaa

00000000000031c4 <handle_sysreg_access_trap>:
 * Handle trapped MSR, MRS or System instruction execution
 * in AArch64 state
 */
bool handle_sysreg_access_trap(struct rec *rec, struct rmi_rec_exit *rec_exit,
			       unsigned long esr)
{
    31c4:	d503233f 	paciasp
    31c8:	a9bd53f3 	stp	x19, x20, [sp, #-48]!
    31cc:	a9015bf5 	stp	x21, x22, [sp, #16]
    31d0:	f90013fe 	str	x30, [sp, #32]
    31d4:	aa0203f3 	mov	x19, x2
	/*
	 * Read Rt value from the issued instruction,
	 * the general-purpose register used for the transfer.
	 * Rt bits [9:5] of ISS field cannot exceed 0b11111.
	 */
	unsigned int rt = (unsigned int)ESR_EL2_SYSREG_ISS_RT(esr);
    31d8:	53052442 	ubfx	w2, w2, #5, #5
	unsigned int __unused op0, op1, crn, crm, op2;
	unsigned long __unused sysreg;

	/* Check for 32-bit instruction trapped */
	assert(ESR_IL(esr) != 0UL);
    31dc:	36c80293 	tbz	w19, #25, 322c <handle_sysreg_access_trap+0x68>
    31e0:	aa0003f4 	mov	x20, x0
    31e4:	aa0103f5 	mov	x21, x1

	for (unsigned int i = 0U; i < ARRAY_LEN(sysreg_handlers); i++) {
    31e8:	52800004 	mov	w4, #0x0                   	// #0
    31ec:	71000c9f 	cmp	w4, #0x3
    31f0:	54000468 	b.hi	327c <handle_sysreg_access_trap+0xb8>  // b.pmore
		const struct sysreg_handler *handler = &sysreg_handlers[i];

		if ((esr & handler->esr_mask) == handler->esr_value) {
    31f4:	b0000fe5 	adrp	x5, 200000 <rmi_status_string>
    31f8:	910ae0a5 	add	x5, x5, #0x2b8
